(lp0
S'poi'
p1
aS'salary_scaled'
p2
aS'total_stock_value_scaled'
p3
aS'total_payments_scaled'
p4
aS'restricted_stock_scaled'
p5
aS'exercised_stock_options_scaled'
p6
aS'other_scaled'
p7
aS'bonus_scaled'
p8
aS'expenses_scaled'
p9
aS'to_poi_ratio_scaled'
p10
aS'from_poi_ratio_scaled'
p11
aS'shared_poi_ratio_scaled'
p12
a.