(dp0
S'METTS MARK'
p1
(dp2
S'to_messages'
p3
I807
sS'deferral_payments'
p4
S'NaN'
p5
sS'expenses'
p6
I94299
sS'restricted_stock_scaled'
p7
cnumpy.core.multiarray
scalar
p8
(cnumpy
dtype
p9
(S'f8'
p10
I0
I1
tp11
Rp12
(I3
S'<'
p13
NNNI-1
I-1
I0
tp14
bS'\xca\x08$\xbcQ\x82\xc7?'
p15
tp16
Rp17
sS'poi'
p18
I00
sS'deferred_income'
p19
g5
sS'email_address'
p20
S'mark.metts@enron.com'
p21
sS'long_term_incentive'
p22
g5
sS'expenses_scaled'
p23
g8
(g12
S'\xdc\x14-\x1bu[\xda?'
p24
tp25
Rp26
sS'total_stock_value_scaled'
p27
g8
(g12
S'i\xaa\xf9\xb4\xb06\x8a?'
p28
tp29
Rp30
sS'restricted_stock_deferred'
p31
g5
sS'shared_receipt_with_poi'
p32
I702
sS'loan_advances'
p33
g5
sS'from_messages'
p34
I29
sS'other'
p35
I1740
sS'to_poi_ratio'
p36
F0.034482758620689655
sS'shared_poi_ratio_scaled'
p37
g8
(g12
S'\x81\xbaX\xc8\xe3\xb9\xeb?'
p38
tp39
Rp40
sS'director_fees'
p41
g5
sS'other_scaled'
p42
g8
(g12
S'YeW\xb5B\xfd%?'
p43
tp44
Rp45
sS'bonus'
p46
I600000
sS'total_stock_value'
p47
I585062
sS'from_poi_to_this_person'
p48
I38
sS'bonus_scaled'
p49
g8
(g12
S'\xa9\x8f\xbb\xf3\x15\x1c\xb1?'
p50
tp51
Rp52
sS'salary_scaled'
p53
g8
(g12
S'\xac~V\xacT\x0c\xd5?'
p54
tp55
Rp56
sS'from_this_person_to_poi'
p57
I1
sS'from_poi_ratio'
p58
F0.04708798017348203
sS'restricted_stock'
p59
I585062
sS'exercised_stock_options_scaled'
p60
S'NaN'
p61
sS'salary'
p62
I365788
sS'total_payments_scaled'
p63
g8
(g12
S'8jKa\xed\xfe\x84?'
p64
tp65
Rp66
sS'from_poi_ratio_scaled'
p67
g8
(g12
S'\xf2\xd3f5X\xbb\xcb?'
p68
tp69
Rp70
sS'total_payments'
p71
I1061827
sS'shared_poi_ratio'
p72
F0.8698884758364313
sS'exercised_stock_options'
p73
g5
sS'to_poi_ratio_scaled'
p74
g8
(g12
S'\x96{\x1aa\xb9\xa7\xa1?'
p75
tp76
Rp77
ssS'BAXTER JOHN C'
p78
(dp79
g3
g5
sg4
I1295738
sg6
I11200
sg7
g8
(g12
S'\xe4r\xcdx\xe9 \xd8?'
p80
tp81
Rp82
sg18
I00
sg19
I-1386055
sg20
g5
sg22
I1586055
sg23
g8
(g12
S'a>Xts\xc0\xa8?'
p83
tp84
Rp85
sg27
g8
(g12
S'\xcf\xb4\x0c\xd4@\xc7\xcb?'
p86
tp87
Rp88
sg31
g5
sg32
g5
sg33
g5
sg34
g5
sg35
I2660303
sg36
g61
sg37
g61
sg41
g5
sg42
g8
(g12
S'Q\x0e\xb5"Jo\xd0?'
p89
tp90
Rp91
sg46
I1200000
sg47
I10623258
sg48
g5
sg49
g8
(g12
S'\xa8\n\xb71V=\xc2?'
p92
tp93
Rp94
sg53
g8
(g12
S'q\x95\xa1\x92m\xb9\xce?'
p95
tp96
Rp97
sg57
g5
sg58
g61
sg59
I3942714
sg60
g8
(g12
S'\xe4\x87\r\x0b\xa5\xe2\xc8?'
p98
tp99
Rp100
sg62
I267102
sg63
g8
(g12
S'z\xa8ch\x03\xdb\xab?'
p101
tp102
Rp103
sg67
g61
sg71
I5634343
sg72
g61
sg73
I6680544
sg74
g61
ssS'ELLIOTT STEVEN'
p104
(dp105
g3
g5
sg4
g5
sg6
I78552
sg7
g8
(g12
S'XQv\x7fn0\xd0?'
p106
tp107
Rp108
sg18
I00
sg19
I-400729
sg20
S'steven.elliott@enron.com'
p109
sg22
g5
sg23
g8
(g12
S'\xdc\x9c\xf9w\xed\xf2\xd5?'
p110
tp111
Rp112
sg27
g8
(g12
S'\xc7\xd96\xf8\xaf\x81\xc1?'
p113
tp114
Rp115
sg31
g5
sg32
g5
sg33
g5
sg34
g5
sg35
I12961
sg36
g61
sg37
g61
sg41
g5
sg42
g8
(g12
S'\xe5\xe2\x03v\xa9~T?'
p116
tp117
Rp118
sg46
I350000
sg47
I6678735
sg48
g5
sg49
g8
(g12
S'\xf1\xaf\xb7\xdf\x03\x14\xa2?'
p119
tp120
Rp121
sg53
g8
(g12
S'd\x8b\x80\x93\xae\xa4\xc3?'
p122
tp123
Rp124
sg57
g5
sg58
g61
sg59
I1788391
sg60
g8
(g12
S'\x92\xb8\xc13\xa66\xc2?'
p125
tp126
Rp127
sg62
I170941
sg63
g8
(g12
S'\xd4}\xe5Z\x93\xbc`?'
p128
tp129
Rp130
sg67
g61
sg71
I211725
sg72
g61
sg73
I4890344
sg74
g61
ssS'CORDES WILLIAM R'
p131
(dp132
g3
I764
sg4
g5
sg6
g5
sg7
g8
(g12
S'3c\xea\x1cX\x0b\xc6?'
p133
tp134
Rp135
sg18
I00
sg19
g5
sg20
S'bill.cordes@enron.com'
p136
sg22
g5
sg23
g61
sg27
g8
(g12
S'I\xc0\xff\xf6\xe4\x8b\x96?'
p137
tp138
Rp139
sg31
g5
sg32
I58
sg33
g5
sg34
I12
sg35
g5
sg36
F0.0
sg37
g8
(g12
S'oy\x06D\r\xfa\xad?'
p140
tp141
Rp142
sg41
g5
sg42
g61
sg46
g5
sg47
I1038185
sg48
I10
sg49
g61
sg53
g61
sg57
I0
sg58
F0.013089005235602094
sg59
I386335
sg60
g8
(g12
S'\x89`=sDV\x93?'
p143
tp144
Rp145
sg62
g5
sg63
g61
sg67
g8
(g12
S'\x94\xfd\x04A\x98\xd5\xae?'
p146
tp147
Rp148
sg71
g5
sg72
F0.07591623036649214
sg73
I651850
sg74
g8
(g12
S'\x00\x00\x00\x00\x00\x00\x00\x00'
p149
tp150
Rp151
ssS'HANNON KEVIN P'
p152
(dp153
g3
I1045
sg4
g5
sg6
I34039
sg7
g8
(g12
S'\x1azh#\x02|\xc9?'
p154
tp155
Rp156
sg18
I01
sg19
I-3117011
sg20
S'kevin.hannon@enron.com'
p157
sg22
I1617011
sg23
g8
(g12
S'\x96\xf0@\x11\xb0\xf9\xc2?'
p158
tp159
Rp160
sg27
g8
(g12
S'\xe4\xb8?u\xea\xc1\xc0?'
p161
tp162
Rp163
sg31
g5
sg32
I1035
sg33
g5
sg34
I32
sg35
I11350
sg36
F0.65625
sg37
g8
(g12
S'pIQV\xaf\xa6\xef?'
p164
tp165
Rp166
sg41
g5
sg42
g8
(g12
S'l\xa5p"l\xf2Q?'
p167
tp168
Rp169
sg46
I1500000
sg47
I6391065
sg48
I32
sg49
g8
(g12
S'\x11\xac\xa3\xcd\xfb\x14\xc7?'
p170
tp171
Rp172
sg53
g8
(g12
S'.\xc2\xb58\x10\xfb\xcb?'
p173
tp174
Rp175
sg57
I21
sg58
F0.03062200956937799
sg59
I853064
sg60
g8
(g12
S';\xee\xf8\xfb\x90\xa0\xc4?'
p176
tp177
Rp178
sg62
I243293
sg63
g8
(g12
S'\xfb\x9d\xfb\x9a\x01\xd3f?'
p179
tp180
Rp181
sg67
g8
(g12
S'\x91\x85\xe5\x07\xcf\x08\xc2?'
p182
tp183
Rp184
sg71
I288682
sg72
F0.9904306220095693
sg73
I5538001
sg74
g8
(g12
S'\x00\x00\x00\x00\x00\x00\xe5?'
p185
tp186
Rp187
ssS'MORDAUNT KRISTINA M'
p188
(dp189
g3
g5
sg4
g5
sg6
I35018
sg7
g8
(g12
S'.k\x8b\x0c\xcf\xbb\xc4?'
p190
tp191
Rp192
sg18
I00
sg19
g5
sg20
S'kristina.mordaunt@enron.com'
p193
sg22
g5
sg23
g8
(g12
S'\x98T!\xad\x02\x86\xc3?'
p194
tp195
Rp196
sg27
g8
(g12
S'\xd7\xf5\xd3@\xa0\x0cu?'
p197
tp198
Rp199
sg31
g5
sg32
g5
sg33
g5
sg34
g5
sg35
I1411
sg36
g61
sg37
g61
sg41
g5
sg42
g8
(g12
S'N\x99r\x0e\xa7\xd3!?'
p200
tp201
Rp202
sg46
I325000
sg47
I208510
sg48
g5
sg49
g8
(g12
S'\xce$\xbe\xab\xccv\xa0?'
p203
tp204
Rp205
sg53
g8
(g12
S'\xf0\x1a\xd8\x9a)\xb9\xce?'
p206
tp207
Rp208
sg57
g5
sg58
g61
sg59
I208510
sg60
g61
sg62
I267093
sg63
g8
(g12
S'\xda6\x1c%\x7f\xdax?'
p209
tp210
Rp211
sg67
g61
sg71
I628522
sg72
g61
sg73
g5
sg74
g61
ssS'MEYER ROCKFORD G'
p212
(dp213
g3
I232
sg4
I1848227
sg6
g5
sg7
g8
(g12
S'\xbeV\x84\x06\xd7\x9a\xc6?'
p214
tp215
Rp216
sg18
I00
sg19
g5
sg20
S'rockford.meyer@enron.com'
p217
sg22
g5
sg23
g61
sg27
g8
(g12
S'E\xdet\x9c\xea\xd4\x94?'
p218
tp219
Rp220
sg31
g5
sg32
I22
sg33
g5
sg34
I28
sg35
g5
sg36
F0.0
sg37
g8
(g12
S'"K4\x85!\xea\xb3?'
p221
tp222
Rp223
sg41
g5
sg42
g61
sg46
g5
sg47
I955873
sg48
I0
sg49
g61
sg53
g61
sg57
I0
sg58
F0.0
sg59
I462384
sg60
g8
(g12
S'\xc7s*\x92\x1b;\x8d?'
p224
tp225
Rp226
sg62
g5
sg63
g8
(g12
S'fm\xe8\xb3\x1aF\x92?'
p227
tp228
Rp229
sg67
g8
(g12
S'\x00\x00\x00\x00\x00\x00\x00\x00'
p230
tp231
Rp232
sg71
I1848227
sg72
F0.09482758620689655
sg73
I493489
sg74
g8
(g12
S'\x00\x00\x00\x00\x00\x00\x00\x00'
p233
tp234
Rp235
ssS'MCMAHON JEFFREY'
p236
(dp237
g3
I2355
sg4
g5
sg6
I137108
sg7
g8
(g12
S'}B\x1b\x8d\xc4P\xc7?'
p238
tp239
Rp240
sg18
I00
sg19
g5
sg20
S'jeffrey.mcmahon@enron.com'
p241
sg22
I694862
sg23
g8
(g12
S'\xe8\x89k\xfb\xb5+\xe3?'
p242
tp243
Rp244
sg27
g8
(g12
S'\xadP\xcd\x08\xa9\xc7\xa1?'
p245
tp246
Rp247
sg31
g5
sg32
I2228
sg33
g5
sg34
I48
sg35
I297353
sg36
F0.5416666666666666
sg37
g8
(g12
S'O=\xe7\xe3\xed4\xee?'
p248
tp249
Rp250
sg41
g5
sg42
g8
(g12
S'\xf8\x8f\x17;6d\x9d?'
p251
tp252
Rp253
sg46
I2600000
sg47
I1662855
sg48
I58
sg49
g8
(g12
S'JS\xae\x84-k\xd4?'
p254
tp255
Rp256
sg53
g8
(g12
S'\xec(\xde\xcf\x10Q\xd5?'
p257
tp258
Rp259
sg57
I26
sg58
F0.024628450106157114
sg59
I558801
sg60
g8
(g12
S'\xae\x9e\xd9\xec\xe3h\xa0?'
p260
tp261
Rp262
sg62
I370448
sg63
g8
(g12
S'\xbdN\xf9\xac\xc1D\xa4?'
p263
tp264
Rp265
sg67
g8
(g12
S'\xda\xe8\xe1\xf9X\x02\xbd?'
p266
tp267
Rp268
sg71
I4099771
sg72
F0.9460721868365181
sg73
I1104054
sg74
g8
(g12
S'UUUUUU\xe1?'
p269
tp270
Rp271
ssS'HORTON STANLEY C'
p272
(dp273
g3
I2350
sg4
I3131860
sg6
g5
sg7
g8
(g12
S'\x17\xc8\x04\xa6\x8b#\xd1?'
p274
tp275
Rp276
sg18
I00
sg19
g5
sg20
S'stanley.horton@enron.com'
p277
sg22
g5
sg23
g61
sg27
g8
(g12
S'=\xe3C\x19\xf2\x02\xc3?'
p278
tp279
Rp280
sg31
g5
sg32
I1074
sg33
g5
sg34
I1073
sg35
g5
sg36
F0.013979496738117428
sg37
g8
(g12
S'\xeb\xb8q\xa6\xc2\x90\xdc?'
p281
tp282
Rp283
sg41
g5
sg42
g61
sg46
g5
sg47
I7256648
sg48
I44
sg49
g61
sg53
g61
sg57
I15
sg58
F0.01872340425531915
sg59
I2046079
sg60
g8
(g12
S'\xb7\xd7\x1du+h\xc3?'
p284
tp285
Rp286
sg62
g5
sg63
g8
(g12
S'\x0c\xe2|Th\xf7\x9e?'
p287
tp288
Rp289
sg67
g8
(g12
S'\xf6J\x86\x86\xc4\r\xb6?'
p290
tp291
Rp292
sg71
I3131860
sg72
F0.4570212765957447
sg73
I5210569
sg74
g8
(g12
S'["pJH\xa1\x8c?'
p293
tp294
Rp295
ssS'PIPER GREGORY F'
p296
(dp297
g3
I1238
sg4
I1130036
sg6
I43057
sg7
g8
(g12
S"N\xdb\x7f\xe1'7\xc6?"
p298
tp299
Rp300
sg18
I00
sg19
I-33333
sg20
S'greg.piper@enron.com'
p301
sg22
g5
sg23
g8
(g12
S'\xbb\x87\\\x08C\x06\xc8?'
p302
tp303
Rp304
sg27
g8
(g12
S'A\xb7\x00.\xd3A\x93?'
p305
tp306
Rp307
sg31
I-409554
sg32
I742
sg33
g5
sg34
I222
sg35
I778
sg36
F0.21621621621621623
sg37
g8
(g12
S'\x97\xdf*\xd7\xcf\xea\xe2?'
p308
tp309
Rp310
sg41
g5
sg42
g8
(g12
S'\x0f\x93\x98\xcf\xd1\xa2\x13?'
p311
tp312
Rp313
sg46
I400000
sg47
I880290
sg48
I61
sg49
g8
(g12
S'7\xc6\xaaGrN\xa5?'
p314
tp315
Rp316
sg53
g8
(g12
S'i\x10\\#\x1b\xa8\xc6?'
p317
tp318
Rp319
sg57
I48
sg58
F0.049273021001615507
sg59
I409554
sg60
g8
(g12
S'\x94\x94\xbf\x80\xde%\x9a?'
p320
tp321
Rp322
sg62
I197091
sg63
g8
(g12
S'\x9cc\x91\xd5$.\x91?'
p323
tp324
Rp325
sg67
g8
(g12
S'qA\xb7.\xc7\x04\xcd?'
p326
tp327
Rp328
sg71
I1737629
sg72
F0.5993537964458805
sg73
I880290
sg74
g8
(g12
S'\xd0\xba\xc1\x14\xf9\xac\xcb?'
p329
tp330
Rp331
ssS'HUMPHREY GENE E'
p332
(dp333
g3
I128
sg4
I2964506
sg6
I4994
sg7
g61
sg18
I00
sg19
g5
sg20
S'gene.humphrey@enron.com'
p334
sg22
g5
sg23
g8
(g12
S'\x96\xc1\x87\xa2\xb8\xb4\x95?'
p335
tp336
Rp337
sg27
g8
(g12
S'\xf8>\xd1H\xb0<\xa8?'
p338
tp339
Rp340
sg31
g5
sg32
I119
sg33
g5
sg34
I17
sg35
g5
sg36
F1.0
sg37
g8
(g12
S'\xa9\xb0\x86>Z\xac\xed?'
p341
tp342
Rp343
sg41
g5
sg42
g61
sg46
g5
sg47
I2282768
sg48
I10
sg49
g61
sg53
g8
(g12
S'\xa7&\x0cQ\x90\x04\xbe?'
p344
tp345
Rp346
sg57
I17
sg58
F0.078125
sg59
g5
sg60
g8
(g12
S'\x1a\xaf\xca:\x9f\xfd\xb0?'
p347
tp348
Rp349
sg62
I130724
sg63
g8
(g12
S'.~\x92\x86S\xa7\x9e?'
p350
tp351
Rp352
sg67
g8
(g12
S'2\xb9\x82\x98\\\x01\xd7?'
p353
tp354
Rp355
sg71
I3100224
sg72
F0.9296875
sg73
I2282768
sg74
g8
(g12
S'\x00\x00\x00\x00\x00\x00\xf0?'
p356
tp357
Rp358
ssS'UMANOFF ADAM S'
p359
(dp360
g3
I111
sg4
g5
sg6
I53122
sg7
g61
sg18
I00
sg19
g5
sg20
S'adam.umanoff@enron.com'
p361
sg22
g5
sg23
g8
(g12
S'\xda\xea\xf7\xbd\xe7\xa8\xcd?'
p362
tp363
Rp364
sg27
g61
sg31
g5
sg32
I41
sg33
g5
sg34
I18
sg35
g5
sg36
F0.0
sg37
g8
(g12
S'j\xc9\x8e\xf5}\xdb\xd6?'
p365
tp366
Rp367
sg41
g5
sg42
g61
sg46
I788750
sg47
g5
sg48
I12
sg49
g8
(g12
S'\x1a0#\x8b\xf93\xb7?'
p368
tp369
Rp370
sg53
g8
(g12
S';\xf9\xbf\x99\xa5\x99\xd0?'
p371
tp372
Rp373
sg57
I0
sg58
F0.10810810810810811
sg59
g5
sg60
g61
sg62
I288589
sg63
g8
(g12
S'\x8d\n\x90\xfaeZ\x86?'
p374
tp375
Rp376
sg67
g8
(g12
S'\x9cI\xa4l\x9a\xd5\xdf?'
p377
tp378
Rp379
sg71
I1130461
sg72
F0.36936936936936937
sg73
g5
sg74
g8
(g12
S'\x00\x00\x00\x00\x00\x00\x00\x00'
p380
tp381
Rp382
ssS'BLACHMAN JEREMY M'
p383
(dp384
g3
I2475
sg4
g5
sg6
I84208
sg7
g8
(g12
S'x \xee\xb0\x12\x97\xc4?'
p385
tp386
Rp387
sg18
I00
sg19
g5
sg20
S'jeremy.blachman@enron.com'
p388
sg22
I831809
sg23
g8
(g12
S'\x8b\xad\x84\xbdE\x88\xd7?'
p389
tp390
Rp391
sg27
g8
(g12
S"'\xc0\xec\xc2\xd0\xcc\x94?"
p392
tp393
Rp394
sg31
g5
sg32
I2326
sg33
g5
sg34
I14
sg35
I272
sg36
F0.14285714285714285
sg37
g8
(g12
S'k!\x8f8\xa1\x00\xee?'
p395
tp396
Rp397
sg41
g5
sg42
g8
(g12
S'\x87\x9a\x1b\xcf\x16T\xfb>'
p398
tp399
Rp400
sg46
I850000
sg47
I954354
sg48
I25
sg49
g8
(g12
S'YG\x9b\xf7).\xb9?'
p401
tp402
Rp403
sg53
g8
(g12
S'\x7feg\xd4\x06\x96\xcc?'
p404
tp405
Rp406
sg57
I2
sg58
F0.010101010101010102
sg59
I189041
sg60
g8
(g12
S'z5\xa9TJ\xb8\x96?'
p407
tp408
Rp409
sg62
I248546
sg63
g8
(g12
S'Kc\xad?\xd8\xeb\x93?'
p410
tp411
Rp412
sg67
g8
(g12
S'X\xd7Nc\x9f\xcb\xa7?'
p413
tp414
Rp415
sg71
I2014835
sg72
F0.9397979797979797
sg73
I765313
sg74
g8
(g12
S'\x92$I\x92$I\xc2?'
p416
tp417
Rp418
ssS'SUNDE MARTIN'
p419
(dp420
g3
I2647
sg4
g5
sg6
g5
sg7
g8
(g12
S'r`\x0b\x02(Y\xc8?'
p421
tp422
Rp423
sg18
I00
sg19
g5
sg20
S'marty.sunde@enron.com'
p424
sg22
I476451
sg23
g61
sg27
g8
(g12
S'\xa2\xd8g8\x1f\xf5\x8e?'
p425
tp426
Rp427
sg31
g5
sg32
I2565
sg33
g5
sg34
I38
sg35
I111122
sg36
F0.34210526315789475
sg37
g8
(g12
S'3\x99\x86\x02:\xf4\xee?'
p428
tp429
Rp430
sg41
g5
sg42
g8
(g12
S'S\xf7\xeb\xaa\x97\xf7\x85?'
p431
tp432
Rp433
sg46
I700000
sg47
I698920
sg48
I37
sg49
g8
(g12
S'\xef\xa5\xae[\x84V\xb4?'
p434
tp435
Rp436
sg53
g8
(g12
S'Jh\xd9\xa0\xc1\x9d\xcd?'
p437
tp438
Rp439
sg57
I13
sg58
F0.013978088401964487
sg59
I698920
sg60
g61
sg62
I257486
sg63
g8
(g12
S'\xda\x1c\xe6\xb6^\x8d\x8e?'
p440
tp441
Rp442
sg67
g8
(g12
S'q\xa22)\xe3v\xb0?'
p443
tp444
Rp445
sg71
I1545059
sg72
F0.9690215338118625
sg73
g5
sg74
g8
(g12
S'Q^Cy\r\xe5\xd5?'
p446
tp447
Rp448
ssS'GIBBS DANA R'
p449
(dp450
g3
I169
sg4
I504610
sg6
g5
sg7
g61
sg18
I00
sg19
g5
sg20
S'dana.gibbs@enron.com'
p451
sg22
I461912
sg23
g61
sg27
g8
(g12
S'!r\xf6\x01\xb7\x90\xa7?'
p452
tp453
Rp454
sg31
g5
sg32
I23
sg33
g5
sg34
I12
sg35
g5
sg36
F0.0
sg37
g8
(g12
S'\xae)_\x8c\x07\xaa\xbe?'
p455
tp456
Rp457
sg41
g5
sg42
g61
sg46
g5
sg47
I2218275
sg48
I0
sg49
g61
sg53
g61
sg57
I0
sg58
F0.0
sg59
g5
sg60
g8
(g12
S'\xf2\x02\x94\x15\x8f\x82\xb0?'
p458
tp459
Rp460
sg62
g5
sg63
g8
(g12
S"|'b\x06n\x1c\x83?"
p461
tp462
Rp463
sg67
g8
(g12
S'\x00\x00\x00\x00\x00\x00\x00\x00'
p464
tp465
Rp466
sg71
I966522
sg72
F0.13609467455621302
sg73
I2218275
sg74
g8
(g12
S'\x00\x00\x00\x00\x00\x00\x00\x00'
p467
tp468
Rp469
ssS'LOWRY CHARLES P'
p470
(dp471
g3
g5
sg4
g5
sg6
g5
sg7
g8
(g12
S'\xdbY\xa1\xb7\\T\xc4?'
p472
tp473
Rp474
sg18
I00
sg19
g5
sg20
g5
sg22
g5
sg23
g61
sg27
g8
(g12
S'\xf7\x982\xddPX\x81?'
p475
tp476
Rp477
sg31
I-153686
sg32
g5
sg33
g5
sg34
g5
sg35
g5
sg36
g61
sg37
g61
sg41
g5
sg42
g61
sg46
g5
sg47
I372205
sg48
g5
sg49
g61
sg53
g61
sg57
g5
sg58
g61
sg59
I153686
sg60
g8
(g12
S'\xee\xb3\xac\x01\xac\xff\x85?'
p478
tp479
Rp480
sg62
g5
sg63
g61
sg67
g61
sg71
g5
sg72
g61
sg73
I372205
sg74
g61
ssS'COLWELL WESLEY'
p481
(dp482
g3
I1758
sg4
I27610
sg6
I16514
sg7
g8
(g12
S'\xdf\x0cK\x81\xe0W\xc8?'
p483
tp484
Rp485
sg18
I01
sg19
I-144062
sg20
S'wes.colwell@enron.com'
p486
sg22
g5
sg23
g8
(g12
S'\x17.Q\xb0\x90S\xb2?'
p487
tp488
Rp489
sg27
g8
(g12
S'\x05\xa9\xfc\xe8\xe3\xed\x8e?'
p490
tp491
Rp492
sg31
g5
sg32
I1132
sg33
g5
sg34
I40
sg35
I101740
sg36
F0.275
sg37
g8
(g12
S'\x80\x83\x1c\xdc>^\xe4?'
p493
tp494
Rp495
sg41
g5
sg42
g8
(g12
S'\xc6\x84\xf2\x18\xc9\x1c\x84?'
p496
tp497
Rp498
sg46
I1200000
sg47
I698242
sg48
I240
sg49
g8
(g12
S'\xa8\n\xb71V=\xc2?'
p499
tp500
Rp501
sg53
g8
(g12
S'w\x00\xf9 \xf4\x98\xd0?'
p502
tp503
Rp504
sg57
I11
sg58
F0.13651877133105803
sg59
I698242
sg60
g61
sg62
I288542
sg63
g8
(g12
S'M\xaf"\xbc]x\x8d?'
p505
tp506
Rp507
sg67
g8
(g12
S'\x97\xe1\xabf\xa7\x19\xe4?'
p508
tp509
Rp510
sg71
I1490344
sg72
F0.6439135381114903
sg73
g5
sg74
g8
(g12
S'\x9a\x99\x99\x99\x99\x99\xd1?'
p511
tp512
Rp513
ssS'MULLER MARK S'
p514
(dp515
g3
I136
sg4
I842924
sg6
g5
sg7
g8
(g12
S'\x97\x88\x08;\xa6\xda\xc5?'
p516
tp517
Rp518
sg18
I00
sg19
I-719000
sg20
S's..muller@enron.com'
p519
sg22
I1725545
sg23
g61
sg27
g8
(g12
S'Pp\xabXWo\x9e?'
p520
tp521
Rp522
sg31
g5
sg32
I114
sg33
g5
sg34
I16
sg35
I947
sg36
F0.0
sg37
g8
(g12
S'yCy[\n\xb2\xea?'
p523
tp524
Rp525
sg41
g5
sg42
g8
(g12
S"6'8\xf5\x93\xe9\x17?"
p526
tp527
Rp528
sg46
I1100000
sg47
I1416848
sg48
I12
sg49
g8
(g12
S'\x84\x7f\xbd\xfd\x1e\xa0\xc0?'
p529
tp530
Rp531
sg53
g8
(g12
S')Q\xdbj\xb6\xf1\xcc?'
p532
tp533
Rp534
sg57
I0
sg58
F0.08823529411764706
sg59
I360528
sg60
g8
(g12
S'=2\x8d\xa4qe\x9f?'
p535
tp536
Rp537
sg62
I251654
sg63
g8
(g12
S'jI<\xe9!\xa9\x9f?'
p538
tp539
Rp540
sg67
g8
(g12
S'\xabRB\xaf\x83\xfb\xd9?'
p541
tp542
Rp543
sg71
I3202070
sg72
F0.8382352941176471
sg73
I1056320
sg74
g8
(g12
S'\x00\x00\x00\x00\x00\x00\x00\x00'
p544
tp545
Rp546
ssS'JACKSON CHARLENE R'
p547
(dp548
g3
I258
sg4
g5
sg6
I10181
sg7
g8
(g12
S'\xcb\xa9sx\x8f.\xc7?'
p549
tp550
Rp551
sg18
I00
sg19
g5
sg20
S'charlene.jackson@enron.com'
p552
sg22
g5
sg23
g8
(g12
S'\x05\x05\xc9\x1c:x\xa6?'
p553
tp554
Rp555
sg27
g8
(g12
S'\xb9\xfa\x0eh\x91\t\x90?'
p556
tp557
Rp558
sg31
g5
sg32
I117
sg33
g5
sg34
I56
sg35
I2435
sg36
F0.3392857142857143
sg37
g8
(g12
S'\x12\xb0\x8e\xc3\xdcU\xdc?'
p559
tp560
Rp561
sg41
g5
sg42
g8
(g12
S'\xe2\xa5\x92(Q\xc8.?'
p562
tp563
Rp564
sg46
I250000
sg47
I725735
sg48
I25
sg49
g8
(g12
S'\xc8\x06\xa3\x1fN>\x97?'
p565
tp566
Rp567
sg53
g8
(g12
S'y4s\x8b0\x99\xd0?'
p568
tp569
Rp570
sg57
I19
sg58
F0.09689922480620156
sg59
I540672
sg60
g8
(g12
S'\x95<N\xf3\xc9\xadu?'
p571
tp572
Rp573
sg62
I288558
sg63
g8
(g12
S'n\xcf\xac\x83R\xcbu?'
p574
tp575
Rp576
sg67
g8
(g12
S'o\x07\xb0y\xa2\x88\xdc?'
p577
tp578
Rp579
sg71
I551174
sg72
F0.45348837209302323
sg73
I185063
sg74
g8
(g12
S'n\xdb\xb6m\xdb\xb6\xd5?'
p580
tp581
Rp582
ssS'WESTFAHL RICHARD K'
p583
(dp584
g3
g5
sg4
g5
sg6
I51870
sg7
g8
(g12
S'T- p\xb1\x08\xc6?'
p585
tp586
Rp587
sg18
I00
sg19
I-10800
sg20
S'dick.westfahl@enron.com'
p588
sg22
I256191
sg23
g8
(g12
S'\xf1\x9d&\xe6s\xf5\xcc?'
p589
tp590
Rp591
sg27
g8
(g12
S'\xfc\xaa\x0b\x10\x0b\xe0\x81?'
p592
tp593
Rp594
sg31
g5
sg32
g5
sg33
g5
sg34
g5
sg35
I401130
sg36
g61
sg37
g61
sg41
g5
sg42
g8
(g12
S'~\xee}\x91\x19\xd3\xa3?'
p595
tp596
Rp597
sg46
g5
sg47
I384930
sg48
g5
sg49
g61
sg53
g8
(g12
S'\xac\x15q;\x7f)\xad?'
p598
tp599
Rp600
sg57
g5
sg58
g61
sg59
I384930
sg60
g61
sg62
I63744
sg63
g8
(g12
S'\x1e\x02\x9bw_#~?'
p601
tp602
Rp603
sg67
g61
sg71
I762135
sg72
g61
sg73
g5
sg74
g61
ssS'WALTERS GARETH W'
p604
(dp605
g3
g5
sg4
I53625
sg6
I33785
sg7
g61
sg18
I00
sg19
g5
sg20
g5
sg22
g5
sg23
g8
(g12
S'\xcbs\xde\x00H\xd5\xc2?'
p606
tp607
Rp608
sg27
g8
(g12
S'3\xf7Aa\xffa\x96?'
p609
tp610
Rp611
sg31
g5
sg32
g5
sg33
g5
sg34
g5
sg35
g5
sg36
g61
sg37
g61
sg41
g5
sg42
g61
sg46
g5
sg47
I1030329
sg48
g5
sg49
g61
sg53
g61
sg57
g5
sg58
g61
sg59
g5
sg60
g8
(g12
S'\t\x8fNU\x10\x9f\x9e?'
p612
tp613
Rp614
sg62
g5
sg63
g8
(g12
S'\x18\x97\n\x88t\x9cK?'
p615
tp616
Rp617
sg67
g61
sg71
I87410
sg72
g61
sg73
I1030329
sg74
g61
ssS'WALLS JR ROBERT H'
p618
(dp619
g3
I671
sg4
g5
sg6
I50936
sg7
g8
(g12
S'\xe2"o\xdf\xac\xa3\xce?'
p620
tp621
Rp622
sg18
I00
sg19
g5
sg20
S'rob.walls@enron.com'
p623
sg22
I540751
sg23
g8
(g12
S'\x8d\x11\x8a{\x94o\xcc?'
p624
tp625
Rp626
sg27
g8
(g12
S'\x1a\xa6\xa5\x1f\xc5\xf3\xbe?'
p627
tp628
Rp629
sg31
g5
sg32
I215
sg33
g5
sg34
I146
sg35
I2
sg36
F0.0
sg37
g8
(g12
S' \x1f\xdd\x18f\xab\xd3?'
p630
tp631
Rp632
sg41
g5
sg42
g8
(g12
S'\x00\x00\x00\x00\x00\x00\x00\x00'
p633
tp634
Rp635
sg46
I850000
sg47
I5898997
sg48
I17
sg49
g8
(g12
S'YG\x9b\xf7).\xb9?'
p636
tp637
Rp638
sg53
g8
(g12
S'\x18s=\xd7\x0c\x8c\xd4?'
p639
tp640
Rp641
sg57
I0
sg58
F0.02533532041728763
sg59
I1552453
sg60
g8
(g12
S'\x02\x1a\xd0\xf0\xd1/\xc0?'
p642
tp643
Rp644
sg62
I357091
sg63
g8
(g12
S'\x8c\xb5W\xfd\xef\xc8\x91?'
p645
tp646
Rp647
sg67
g8
(g12
S'\x81\xd7\x0cr~\xd7\xbd?'
p648
tp649
Rp650
sg71
I1798780
sg72
F0.3204172876304024
sg73
I4346544
sg74
g8
(g12
S'\x00\x00\x00\x00\x00\x00\x00\x00'
p651
tp652
Rp653
ssS'KITCHEN LOUISE'
p654
(dp655
g3
I8305
sg4
g5
sg6
I5774
sg7
g8
(g12
S'\x8c\xea\xbd~\xda\xa1\xc6?'
p656
tp657
Rp658
sg18
I00
sg19
g5
sg20
S'louise.kitchen@enron.com'
p659
sg22
g5
sg23
g8
(g12
S'\xf6\x8c\x9c\xfc\x1d3\x99?'
p660
tp661
Rp662
sg27
g8
(g12
S'\x12\x84\x7f!=\xa2\x88?'
p663
tp664
Rp665
sg31
g5
sg32
I3669
sg33
g5
sg34
I1728
sg35
I93925
sg36
F0.11226851851851852
sg37
g8
(g12
S'D;\xe2\n\xb4\x92\xdb?'
p666
tp667
Rp668
sg41
g5
sg42
g8
(g12
S'f\xfc.$H\x91\x82?'
p669
tp670
Rp671
sg46
I3100000
sg47
I547143
sg48
I251
sg49
g8
(g12
S'"/\x9e\x867t\xd8?'
p672
tp673
Rp674
sg53
g8
(g12
S'\xc5\xc9\x986u9\xcf?'
p675
tp676
Rp677
sg57
I194
sg58
F0.030222757375075255
sg59
I466101
sg60
g8
(g12
S'\xbd\x1a\x99\xfd\xee\x8bb?'
p678
tp679
Rp680
sg62
I271442
sg63
g8
(g12
S'!t\xf8\xd5\x1e)\xa1?'
p681
tp682
Rp683
sg67
g8
(g12
S'\xac\x1c\x03I\x9d\xcc\xc1?'
p684
tp685
Rp686
sg71
I3471141
sg72
F0.441782059000602
sg73
I81042
sg74
g8
(g12
S'\xdaKh/\xa1\xbd\xbc?'
p687
tp688
Rp689
ssS'CHAN RONNIE'
p690
(dp691
g3
g5
sg4
g5
sg6
g5
sg7
g8
(g12
S'\xc4\r\xc4b\x9fo\xc3?'
p692
tp693
Rp694
sg18
I00
sg19
I-98784
sg20
g5
sg22
g5
sg23
g61
sg27
g61
sg31
I-32460
sg32
g5
sg33
g5
sg34
g5
sg35
g5
sg36
g61
sg37
g61
sg41
I98784
sg42
g61
sg46
g5
sg47
g5
sg48
g5
sg49
g61
sg53
g61
sg57
g5
sg58
g61
sg59
I32460
sg60
g61
sg62
g5
sg63
g61
sg67
g61
sg71
g5
sg72
g61
sg73
g5
sg74
g61
ssS'BELFER ROBERT'
p695
(dp696
g3
g5
sg4
I-102500
sg6
g5
sg7
g61
sg18
I00
sg19
g5
sg20
g5
sg22
g5
sg23
g61
sg27
g8
(g12
S'\x00\x00\x00\x00\x00\x00\x00\x00'
p697
tp698
Rp699
sg31
I44093
sg32
g5
sg33
g5
sg34
g5
sg35
g5
sg36
g61
sg37
g61
sg41
I3285
sg42
g61
sg46
g5
sg47
I-44093
sg48
g5
sg49
g61
sg53
g61
sg57
g5
sg58
g61
sg59
g5
sg60
g8
(g12
S'\x00\x00\x00\x00\x00\x00\x00\x00'
p700
tp701
Rp702
sg62
g5
sg63
g8
(g12
S'\x0c\xa5+\x8cd1P?'
p703
tp704
Rp705
sg67
g61
sg71
I102500
sg72
g61
sg73
I3285
sg74
g61
ssS'SHANKMAN JEFFREY A'
p706
(dp707
g3
I3221
sg4
g5
sg6
I178979
sg7
g8
(g12
S'\x9a\x861\xe2^\xd7\xc7?'
p708
tp709
Rp710
sg18
I00
sg19
g5
sg20
S'jeffrey.shankman@enron.com'
p711
sg22
I554422
sg23
g8
(g12
S':\x1d&\xdd\x14\x08\xe9?'
p712
tp713
Rp714
sg27
g8
(g12
S'3\xdea>\xc2\n\xa6?'
p715
tp716
Rp717
sg31
g5
sg32
I1730
sg33
g5
sg34
I2681
sg35
I1191
sg36
F0.030958597538232
sg37
g8
(g12
S'2\xee\xa3\xae\xe3\xe3\xe0?'
p718
tp719
Rp720
sg41
g5
sg42
g8
(g12
S'4m\xab\x05-\x16\x1e?'
p721
tp722
Rp723
sg46
I2000000
sg47
I2072035
sg48
I94
sg49
g8
(g12
S"\xc1c\x83\xd1\x0f'\xcf?"
p724
tp725
Rp726
sg53
g8
(g12
S'\xa4\xa8p\xd3\x94~\xd1?'
p727
tp728
Rp729
sg57
I83
sg58
F0.029183483390251473
sg59
I630137
sg60
g8
(g12
S'F\xdc\xc8U6r\xa5?'
p730
tp731
Rp732
sg62
I304110
sg63
g8
(g12
S'~\xabQ\xf4\x97\x0b\x9e?'
p733
tp734
Rp735
sg67
g8
(g12
S'\xcd\x7f\xd8\xec\xec/\xc1?'
p736
tp737
Rp738
sg71
I3038702
sg72
F0.5371002794163303
sg73
I1441898
sg74
g8
(g12
S'\xb3\xb1\xd3O\x9c\xb3\x9f?'
p739
tp740
Rp741
ssS'WODRASKA JOHN'
p742
(dp743
g3
g5
sg4
g5
sg6
g5
sg7
g61
sg18
I00
sg19
g5
sg20
S'john.wodraska@enron.com'
p744
sg22
g5
sg23
g61
sg27
g61
sg31
g5
sg32
g5
sg33
g5
sg34
g5
sg35
I189583
sg36
g61
sg37
g61
sg41
g5
sg42
g8
(g12
S'\x01\x84\x9a:/\xbd\x92?'
p745
tp746
Rp747
sg46
g5
sg47
g5
sg48
g5
sg49
g61
sg53
g61
sg57
g5
sg58
g61
sg59
g5
sg60
g61
sg62
g5
sg63
g8
(g12
S'\xa3\xbeH\xe1^\xf8]?'
p748
tp749
Rp750
sg67
g61
sg71
I189583
sg72
g61
sg73
g5
sg74
g61
ssS'BERGSIEKER RICHARD P'
p751
(dp752
g3
I383
sg4
g5
sg6
I59175
sg7
g8
(g12
S'\xce\xcc\xd28M\x0e\xc8?'
p753
tp754
Rp755
sg18
I00
sg19
I-485813
sg20
S'rick.bergsieker@enron.com'
p756
sg22
I180250
sg23
g8
(g12
S'+,k\xbc?\x86\xd0?'
p757
tp758
Rp759
sg27
g8
(g12
S'\xc2\xee@\xba\xfbM\x8d?'
p760
tp761
Rp762
sg31
g5
sg32
I233
sg33
g5
sg34
I59
sg35
I427316
sg36
F0.0
sg37
g8
(g12
S'W\xd8.\xe7\xd75\xe3?'
p763
tp764
Rp765
sg41
g5
sg42
g8
(g12
S'\x10\x03c1h\x1e\xa5?'
p766
tp767
Rp768
sg46
I250000
sg47
I659249
sg48
I4
sg49
g8
(g12
S'\xc8\x06\xa3\x1fN>\x97?'
p769
tp770
Rp771
sg53
g8
(g12
S'\xfe\xfc\xff\xee\x9e\x99\xc5?'
p772
tp773
Rp774
sg57
I0
sg58
F0.010443864229765013
sg59
I659249
sg60
g61
sg62
I187922
sg63
g8
(g12
S'\xc4\x14l~\x90xx?'
p775
tp776
Rp777
sg67
g8
(g12
S"\x82'FKc\x9a\xa8?"
p778
tp779
Rp780
sg71
I618850
sg72
F0.608355091383812
sg73
g5
sg74
g8
(g12
S'\x00\x00\x00\x00\x00\x00\x00\x00'
p781
tp782
Rp783
ssS'URQUHART JOHN A'
p784
(dp785
g3
g5
sg4
g5
sg6
I228656
sg7
g61
sg18
I00
sg19
I-36666
sg20
g5
sg22
g5
sg23
g8
(g12
S'\xb0\x1d4u*\xfc\xef?'
p786
tp787
Rp788
sg27
g61
sg31
g5
sg32
g5
sg33
g5
sg34
g5
sg35
g5
sg36
g61
sg37
g61
sg41
I36666
sg42
g61
sg46
g5
sg47
g5
sg48
g5
sg49
g61
sg53
g61
sg57
g5
sg58
g61
sg59
g5
sg60
g61
sg62
g5
sg63
g8
(g12
S'O\x1f\x0b\x8ep\x13b?'
p789
tp790
Rp791
sg67
g61
sg71
I228656
sg72
g61
sg73
g5
sg74
g61
ssS'BIBI PHILIPPE A'
p792
(dp793
g3
I1607
sg4
g5
sg6
I38559
sg7
g8
(g12
S'\xc4W\xce\x8f\xc5\xfb\xc5?'
p794
tp795
Rp796
sg18
I00
sg19
g5
sg20
S'philippe.bibi@enron.com'
p797
sg22
I369721
sg23
g8
(g12
S'\xcd\xdf\xc2,\x8d\x81\xc5?'
p798
tp799
Rp800
sg27
g8
(g12
S'\x9f\xa5\xed\x9e3\xaa\xa3?'
p801
tp802
Rp803
sg31
g5
sg32
I1336
sg33
g5
sg34
I40
sg35
I425688
sg36
F0.2
sg37
g8
(g12
S'\xf1m\xc4\xf6\xc0x\xea?'
p804
tp805
Rp806
sg41
g5
sg42
g8
(g12
S'\x1cz\xf36\xcf\t\xa5?'
p807
tp808
Rp809
sg46
I1000000
sg47
I1843816
sg48
I23
sg49
g8
(g12
S'\xc2\xe8\x87\x93\xcf\x05\xbe?'
p810
tp811
Rp812
sg53
g8
(g12
S'Fho\xc1\xdb\x8f\xc8?'
p813
tp814
Rp815
sg57
I8
sg58
F0.01431238332296204
sg59
I378082
sg60
g8
(g12
S'a\xb4\xc4\x99-\xcd\xa5?'
p816
tp817
Rp818
sg62
I213625
sg63
g8
(g12
S'M\xd9\x11"\xc4>\x94?'
p819
tp820
Rp821
sg67
g8
(g12
S'\xaa\xc1\x17g\xb0\xdb\xb0?'
p822
tp823
Rp824
sg71
I2047593
sg72
F0.8313627878033603
sg73
I1465734
sg74
g8
(g12
S'\x9a\x99\x99\x99\x99\x99\xc9?'
p825
tp826
Rp827
ssS'RIEKER PAULA H'
p828
(dp829
g3
I1328
sg4
I214678
sg6
I33271
sg7
g8
(g12
S'\xb2(\x86d\x96I\xc5?'
p830
tp831
Rp832
sg18
I01
sg19
I-100000
sg20
S'paula.rieker@enron.com'
p833
sg22
g5
sg23
g8
(g12
S'\xdd\xc3e\xb7\x9b\x8b\xc2?'
p834
tp835
Rp836
sg27
g8
(g12
S'F1\x9f\xd3ar\xa4?'
p837
tp838
Rp839
sg31
g5
sg32
I1258
sg33
g5
sg34
I82
sg35
I1950
sg36
F0.5853658536585366
sg37
g8
(g12
S'\x94X\x1c\xcf\x12?\xee?'
p840
tp841
Rp842
sg41
g5
sg42
g8
(g12
S'\xed\xf7\xb2\x97o\xa5(?'
p843
tp844
Rp845
sg46
I700000
sg47
I1918887
sg48
I35
sg49
g8
(g12
S'\xef\xa5\xae[\x84V\xb4?'
p846
tp847
Rp848
sg53
g8
(g12
S'Y\xc7<bY\xa9\xcc?'
p849
tp850
Rp851
sg57
I48
sg58
F0.02635542168674699
sg59
I283649
sg60
g8
(g12
S'\xf5\x08Ah\x0fT\xa8?'
p852
tp853
Rp854
sg62
I249201
sg63
g8
(g12
S'\xb0F$\xc8\xa0\xbb\x85?'
p855
tp856
Rp857
sg67
g8
(g12
S'$\xdeS*\x17\x0b\xbf?'
p858
tp859
Rp860
sg71
I1099100
sg72
F0.947289156626506
sg73
I1635238
sg74
g8
(g12
S'\xbb\x12\xb5+Q\xbb\xe2?'
p861
tp862
Rp863
ssS'WHALEY DAVID A'
p864
(dp865
g3
g5
sg4
g5
sg6
g5
sg7
g61
sg18
I00
sg19
g5
sg20
g5
sg22
g5
sg23
g61
sg27
g8
(g12
S'\x07!\xd3\r\x00\xcdg?'
p866
tp867
Rp868
sg31
g5
sg32
g5
sg33
g5
sg34
g5
sg35
g5
sg36
g61
sg37
g61
sg41
g5
sg42
g61
sg46
g5
sg47
I98718
sg48
g5
sg49
g61
sg53
g61
sg57
g5
sg58
g61
sg59
g5
sg60
g8
(g12
S'\xb5"\xb46@\xc3f?'
p869
tp870
Rp871
sg62
g5
sg63
g61
sg67
g61
sg71
g5
sg72
g61
sg73
I98718
sg74
g61
ssS'BECK SALLY W'
p872
(dp873
g3
I7315
sg4
g5
sg6
I37172
sg7
g8
(g12
S'\xee(k=, \xc4?'
p874
tp875
Rp876
sg18
I00
sg19
g5
sg20
S'sally.beck@enron.com'
p877
sg22
g5
sg23
g8
(g12
S'\x08\x0c&\xc1\xbf\xba\xc4?'
p878
tp879
Rp880
sg27
g8
(g12
S'\x90E\xc7\xfb!Zl?'
p881
tp882
Rp883
sg31
g5
sg32
I2639
sg33
g5
sg34
I4343
sg35
I566
sg36
F0.08887865530739121
sg37
g8
(g12
S'\xf1\xda\xed2\x0eL\xd6?'
p884
tp885
Rp886
sg41
g5
sg42
g8
(g12
S'\xb5\x9b\x8e\xc1\x06\x8b\x0c?'
p887
tp888
Rp889
sg46
I700000
sg47
I126027
sg48
I144
sg49
g8
(g12
S'\xef\xa5\xae[\x84V\xb4?'
p890
tp891
Rp892
sg53
g8
(g12
S'D<"\xc1\'\x9a\xca?'
p893
tp894
Rp895
sg57
I386
sg58
F0.01968557758031442
sg59
I126027
sg60
g61
sg62
I231330
sg63
g8
(g12
S'@\xd3\xf2\xbfQ)\x83?'
p896
tp897
Rp898
sg67
g8
(g12
S'\x03>p\x9c\xe5/\xb7?'
p899
tp900
Rp901
sg71
I969068
sg72
F0.36076555023923446
sg73
g5
sg74
g8
(g12
S']\x92\xdbe\xc0\xc0\xb6?'
p902
tp903
Rp904
ssS'HAUG DAVID L'
p905
(dp906
g3
I573
sg4
g5
sg6
I475
sg7
g8
(g12
S'\xd0\x8e\x9a\xee\x14\xc5\xd1?'
p907
tp908
Rp909
sg18
I00
sg19
g5
sg20
S'david.haug@enron.com'
p910
sg22
g5
sg23
g8
(g12
S'j\x05)!UoW?'
p911
tp912
Rp913
sg27
g8
(g12
S'\'/"\xc1\x1c\x8e\xa7?'
p914
tp915
Rp916
sg31
g5
sg32
I471
sg33
g5
sg34
I19
sg35
g5
sg36
F0.3684210526315789
sg37
g8
(g12
S'\xb4\xea\xb4(\x9f*\xea?'
p917
tp918
Rp919
sg41
g5
sg42
g61
sg46
g5
sg47
I2217299
sg48
I4
sg49
g61
sg53
g61
sg57
I7
sg58
F0.006980802792321117
sg59
I2217299
sg60
g61
sg62
g5
sg63
g8
(g12
S'\x0e\xbd~M\xe5|\xca>'
p920
tp921
Rp922
sg67
g8
(g12
S'\xb5\xfeW\xcd\xeaq\xa0?'
p923
tp924
Rp925
sg71
I475
sg72
F0.8219895287958116
sg73
g5
sg74
g8
(g12
S'Cy\r\xe55\x94\xd7?'
p926
tp927
Rp928
ssS'ECHOLS JOHN B'
p929
(dp930
g3
g5
sg4
g5
sg6
I21530
sg7
g8
(g12
S' <\x0b)I3\xc6?'
p931
tp932
Rp933
sg18
I00
sg19
g5
sg20
S'john.echols@enron.com'
p934
sg22
I2234774
sg23
g8
(g12
S'I&\x10\x86z\xf1\xb7?'
p935
tp936
Rp937
sg27
g8
(g12
S'\xd6@\x9b\xeb\xee\xef\x95?'
p938
tp939
Rp940
sg31
g5
sg32
g5
sg33
g5
sg34
g5
sg35
I53775
sg36
g61
sg37
g61
sg41
g5
sg42
g8
(g12
S'\xe3;#\xec\xb7Bu?'
p941
tp942
Rp943
sg46
I200000
sg47
I1008941
sg48
g5
sg49
g8
(g12
S':\xda\xbcOq\xc9\x90?'
p944
tp945
Rp946
sg53
g8
(g12
S's\x95\x01H&\xf2\xc4?'
p947
tp948
Rp949
sg57
g5
sg58
g61
sg59
I407503
sg60
g8
(g12
S'#\xf4Y\x8b}\xd5\x91?'
p950
tp951
Rp952
sg62
I182245
sg63
g8
(g12
S'\xa0\x17\xe3\x9a\xcb\x9e\x9a?'
p953
tp954
Rp955
sg67
g61
sg71
I2692324
sg72
g61
sg73
I601438
sg74
g61
ssS'MENDELSOHN JOHN'
p956
(dp957
g3
g5
sg4
g5
sg6
I148
sg7
g61
sg18
I00
sg19
I-103750
sg20
g5
sg22
g5
sg23
g8
(g12
S'\x00\x00\x00\x00\x00\x00\x00\x00'
p958
tp959
Rp960
sg27
g61
sg31
g5
sg32
g5
sg33
g5
sg34
g5
sg35
g5
sg36
g61
sg37
g61
sg41
I103750
sg42
g61
sg46
g5
sg47
g5
sg48
g5
sg49
g61
sg53
g61
sg57
g5
sg58
g61
sg59
g5
sg60
g61
sg62
g5
sg63
g8
(g12
S'\x00\x00\x00\x00\x00\x00\x00\x00'
p961
tp962
Rp963
sg67
g61
sg71
I148
sg72
g61
sg73
g5
sg74
g61
ssS'HICKERSON GARY J'
p964
(dp965
g3
I1320
sg4
g5
sg6
I98849
sg7
g8
(g12
S'NOQ\x03\xacr\xc6?'
p966
tp967
Rp968
sg18
I00
sg19
g5
sg20
S'gary.hickerson@enron.com'
p969
sg22
I69223
sg23
g8
(g12
S'WT\xaf\x0e\x8a\xa1\xdb?'
p970
tp971
Rp972
sg27
g8
(g12
S'D\xe8\xa8\xe9\x1e7\x84?'
p973
tp974
Rp975
sg31
g5
sg32
I900
sg33
g5
sg34
I27
sg35
I1936
sg36
F0.037037037037037035
sg37
g8
(g12
S'\xb9\xd6\x11k4\x9a\xe5?'
p976
tp977
Rp978
sg41
g5
sg42
g8
(g12
S'\xc1\x87WD\x17x(?'
p979
tp980
Rp981
sg46
I1700000
sg47
I441096
sg48
I40
sg49
g8
(g12
S'X\xc2\x965jO\xca?'
p982
tp983
Rp984
sg53
g8
(g12
S'\xca\x82\x92\xbf\xaaY\xc8?'
p985
tp986
Rp987
sg57
I1
sg58
F0.030303030303030304
sg59
I441096
sg60
g61
sg62
I211788
sg63
g8
(g12
S'\xcb\xe2\x87hX\x95\x94?'
p988
tp989
Rp990
sg67
g8
(g12
S'\x82!{\x8a\xb7\xd8\xc1?'
p991
tp992
Rp993
sg71
I2081796
sg72
F0.6818181818181818
sg73
g5
sg74
g8
(g12
S'h/\xa1\xbd\x84\xf6\xa2?'
p994
tp995
Rp996
ssS'CLINE KENNETH W'
p997
(dp998
g3
g5
sg4
g5
sg6
g5
sg7
g8
(g12
S'6\xb61\x9d\xa7\x13\xc8?'
p999
tp1000
Rp1001
sg18
I00
sg19
g5
sg20
g5
sg22
g5
sg23
g61
sg27
g8
(g12
S'\x82z\x101{ws?'
p1002
tp1003
Rp1004
sg31
I-472568
sg32
g5
sg33
g5
sg34
g5
sg35
g5
sg36
g61
sg37
g61
sg41
g5
sg42
g61
sg46
g5
sg47
I189518
sg48
g5
sg49
g61
sg53
g61
sg57
g5
sg58
g61
sg59
I662086
sg60
g61
sg62
g5
sg63
g61
sg67
g61
sg71
g5
sg72
g61
sg73
g5
sg74
g61
ssS'LEWIS RICHARD'
p1005
(dp1006
g3
I952
sg4
g5
sg6
g5
sg7
g61
sg18
I00
sg19
g5
sg20
S'richard.lewis@enron.com'
p1007
sg22
g5
sg23
g61
sg27
g8
(g12
S'\xd8\xc1zK\xd4\xa2\x92?'
p1008
tp1009
Rp1010
sg31
g5
sg32
I739
sg33
g5
sg34
I26
sg35
g5
sg36
F0.0
sg37
g8
(g12
S'\x06\xc6 \xfbp\xad\xe8?'
p1011
tp1012
Rp1013
sg41
g5
sg42
g61
sg46
g5
sg47
I850477
sg48
I10
sg49
g61
sg53
g61
sg57
I0
sg58
F0.01050420168067227
sg59
g5
sg60
g8
(g12
S'\xc9\xe7\xf3*QB\x99?'
p1014
tp1015
Rp1016
sg62
g5
sg63
g61
sg67
g8
(g12
S'\xbbN\x88\x8e\xc6\xbe\xa8?'
p1017
tp1018
Rp1019
sg71
g5
sg72
F0.7762605042016807
sg73
I850477
sg74
g8
(g12
S'\x00\x00\x00\x00\x00\x00\x00\x00'
p1020
tp1021
Rp1022
ssS'HAYES ROBERT E'
p1023
(dp1024
g3
I504
sg4
I7961
sg6
g5
sg7
g8
(g12
S'\x0b\x1e0-\x15P\xc4?'
p1025
tp1026
Rp1027
sg18
I00
sg19
g5
sg20
S'robert.hayes@enron.com'
p1028
sg22
g5
sg23
g61
sg27
g8
(g12
S'\x9c\r\xf2\x94\xb7Jp?'
p1029
tp1030
Rp1031
sg31
g5
sg32
I50
sg33
g5
sg34
I12
sg35
g5
sg36
F0.0
sg37
g8
(g12
S'\xe6l\xea\x08!\x0e\xb5?'
p1032
tp1033
Rp1034
sg41
g5
sg42
g61
sg46
g5
sg47
I151418
sg48
I16
sg49
g61
sg53
g61
sg57
I0
sg58
F0.031746031746031744
sg59
I151418
sg60
g61
sg62
g5
sg63
g8
(g12
S"$'\x9a\xb4\xfd\xc6\x13?"
p1035
tp1036
Rp1037
sg67
g8
(g12
S'|;P`F\xb2\xc2?'
p1038
tp1039
Rp1040
sg71
I7961
sg72
F0.0992063492063492
sg73
g5
sg74
g8
(g12
S'\x00\x00\x00\x00\x00\x00\x00\x00'
p1041
tp1042
Rp1043
ssS'MCCARTY DANNY J'
p1044
(dp1045
g3
I1433
sg4
g5
sg6
g5
sg7
g8
(g12
S'\xb6Tbg\xca\xe4\xc3?'
p1046
tp1047
Rp1048
sg18
I00
sg19
g5
sg20
S'danny.mccarty@enron.com'
p1049
sg22
g5
sg23
g61
sg27
g8
(g12
S's+\x8f\x02\x9b\xba\x90?'
p1050
tp1051
Rp1052
sg31
g5
sg32
I508
sg33
g5
sg34
I215
sg35
g5
sg36
F0.009302325581395349
sg37
g8
(g12
S'\x8c\xfa\x08F\x9e\xe3\xd5?'
p1053
tp1054
Rp1055
sg41
g5
sg42
g61
sg46
g5
sg47
I758931
sg48
I25
sg49
g61
sg53
g61
sg57
I2
sg58
F0.017445917655268667
sg59
I94556
sg60
g8
(g12
S'\xb4\x9e\x96\xc4\xdd\xb5\x93?'
p1056
tp1057
Rp1058
sg62
g5
sg63
g61
sg67
g8
(g12
S'|\xe4\xf7r\x8f\x8c\xb4?'
p1059
tp1060
Rp1061
sg71
g5
sg72
F0.35450104675505933
sg73
I664375
sg74
g8
(g12
S'\x90\xd10\x01\x19\r\x83?'
p1062
tp1063
Rp1064
ssS'KOPPER MICHAEL J'
p1065
(dp1066
g3
g5
sg4
g5
sg6
I118134
sg7
g8
(g12
S'\\grP\x04u\xca?'
p1067
tp1068
Rp1069
sg18
I01
sg19
g5
sg20
S'michael.kopper@enron.com'
p1070
sg22
I602671
sg23
g8
(g12
S'-R\xc3\xf3\xcf\x83\xe0?'
p1071
tp1072
Rp1073
sg27
g8
(g12
S'\x9c\x08\x82\x9blp\x95?'
p1074
tp1075
Rp1076
sg31
g5
sg32
g5
sg33
g5
sg34
g5
sg35
I907502
sg36
g61
sg37
g61
sg41
g5
sg42
g8
(g12
S'ux\xcf\x8c\xe0l\xb6?'
p1077
tp1078
Rp1079
sg46
I800000
sg47
I985032
sg48
g5
sg49
g8
(g12
S'5\xbc\xa1\xc3\xf2\x90\xb7?'
p1080
tp1081
Rp1082
sg53
g8
(g12
S'\x00\x9a\xb4\x04\xeb\xca\xc9?'
p1083
tp1084
Rp1085
sg57
g5
sg58
g61
sg59
I985032
sg60
g61
sg62
I224305
sg63
g8
(g12
S'\x85WHaE:\x9a?'
p1086
tp1087
Rp1088
sg67
g61
sg71
I2652612
sg72
g61
sg73
g5
sg74
g61
ssS'LEFF DANIEL P'
p1089
(dp1090
g3
I2822
sg4
g5
sg6
g5
sg7
g8
(g12
S'\x97\x88\x08;\xa6\xda\xc5?'
p1091
tp1092
Rp1093
sg18
I00
sg19
g5
sg20
S'dan.leff@enron.com'
p1094
sg22
I1387399
sg23
g61
sg27
g8
(g12
S'F_\x17G\xc4\xdb\x80?'
p1095
tp1096
Rp1097
sg31
g5
sg32
I2672
sg33
g5
sg34
I63
sg35
I3083
sg36
F0.2222222222222222
sg37
g8
(g12
S'\x03\x08\x88\x97a;\xee?'
p1098
tp1099
Rp1100
sg41
g5
sg42
g8
(g12
S'\xecv\x8df\x92}3?'
p1101
tp1102
Rp1103
sg46
I1000000
sg47
I360528
sg48
I67
sg49
g8
(g12
S'\xc2\xe8\x87\x93\xcf\x05\xbe?'
p1104
tp1105
Rp1106
sg53
g8
(g12
S'\x01K\x13\x00m}\xcf?'
p1107
tp1108
Rp1109
sg57
I14
sg58
F0.02374202693125443
sg59
I360528
sg60
g61
sg62
I273746
sg63
g8
(g12
S'\x07\xc8\xdd\xcb\xacW\x9a?'
p1110
tp1111
Rp1112
sg67
g8
(g12
S'":fF\x0f\xf7\xbb?'
p1113
tp1114
Rp1115
sg71
I2664228
sg72
F0.9468462083628633
sg73
g5
sg74
g8
(g12
S'\x1c\xc7q\x1c\xc7q\xcc?'
p1116
tp1117
Rp1118
ssS'LAVORATO JOHN J'
p1119
(dp1120
g3
I7259
sg4
g5
sg6
I49537
sg7
g8
(g12
S'\xbc\x04\xd2\xcf\xa2\xa0\xca?'
p1121
tp1122
Rp1123
sg18
I00
sg19
g5
sg20
S'john.lavorato@enron.com'
p1124
sg22
I2035380
sg23
g8
(g12
S'\x15\xd1\x85\xbe\x0e\xa7\xcb?'
p1125
tp1126
Rp1127
sg27
g8
(g12
S'\xa4\xa34U\x02$\xbb?'
p1128
tp1129
Rp1130
sg31
g5
sg32
I3962
sg33
g5
sg34
I2585
sg35
I1552
sg36
F0.15899419729206962
sg37
g8
(g12
S'\x0cU\x12Rs,\xe1?'
p1131
tp1132
Rp1133
sg41
g5
sg42
g8
(g12
S'\n\x83\x8bzW\x9c#?'
p1134
tp1135
Rp1136
sg46
I8000000
sg47
I5167144
sg48
I528
sg49
g8
(g12
S'\x00\x00\x00\x00\x00\x00\xf0?'
p1137
tp1138
Rp1139
sg53
g8
(g12
S'\x92\x8a7\xcbt\x85\xd3?'
p1140
tp1141
Rp1142
sg57
I411
sg58
F0.07273729163796666
sg59
I1008149
sg60
g8
(g12
S'\xce\x1c\xf0/\xc4\xf9\xbe?'
p1143
tp1144
Rp1145
sg62
I339288
sg63
g8
(g12
S'/\xdf\x98a\xac\xc5\xb9?'
p1146
tp1147
Rp1148
sg67
g8
(g12
S'OrY27k\xd5?'
p1149
tp1150
Rp1151
sg71
I10425757
sg72
F0.5458052073288332
sg73
I4158995
sg74
g8
(g12
S'_\xc5\xcf\xfe\xebY\xc4?'
p1152
tp1153
Rp1154
ssS'BERBERIAN DAVID'
p1155
(dp1156
g3
g5
sg4
g5
sg6
I11892
sg7
g8
(g12
S'\xa7\xde\x00-~\x9a\xc9?'
p1157
tp1158
Rp1159
sg18
I00
sg19
g5
sg20
S'david.berberian@enron.com'
p1160
sg22
g5
sg23
g8
(g12
S'\x91/\xde"2M\xaa?'
p1161
tp1162
Rp1163
sg27
g8
(g12
S'AJ\x12\xd4\xecn\xaa?'
p1164
tp1165
Rp1166
sg31
g5
sg32
g5
sg33
g5
sg34
g5
sg35
g5
sg36
g61
sg37
g61
sg41
g5
sg42
g61
sg46
g5
sg47
I2493616
sg48
g5
sg49
g61
sg53
g8
(g12
S'\\\xbe \xfe\x16\xe7\xc8?'
p1167
tp1168
Rp1169
sg57
g5
sg58
g61
sg59
I869220
sg60
g8
(g12
S'K\xee\xeb\x00\xaf*\xa8?'
p1170
tp1171
Rp1172
sg62
I216582
sg63
g8
(g12
S'\xa1\x86%\t\xc1\x0fb?'
p1173
tp1174
Rp1175
sg67
g61
sg71
I228474
sg72
g61
sg73
I1624396
sg74
g61
ssS'DETMERING TIMOTHY J'
p1176
(dp1177
g3
g5
sg4
I875307
sg6
I52255
sg7
g8
(g12
S':`K\x1c\xdf\x84\xc5?'
p1178
tp1179
Rp1180
sg18
I00
sg19
I-775241
sg20
S'timothy.detmering@enron.com'
p1181
sg22
I415657
sg23
g8
(g12
S']}\x87\xc4\xa2,\xcd?'
p1182
tp1183
Rp1184
sg27
g8
(g12
S'\xf2mU0\xfa\x94\xa5?'
p1185
tp1186
Rp1187
sg31
I-315068
sg32
g5
sg33
g5
sg34
g5
sg35
I1105
sg36
g61
sg37
g61
sg41
g5
sg42
g8
(g12
S'\x17\x0bHs\x14\xe9\x1b?'
p1188
tp1189
Rp1190
sg46
I425000
sg47
I2027865
sg48
g5
sg49
g8
(g12
S'[Q\xa4{\xa9\xeb\xa6?'
p1191
tp1192
Rp1193
sg53
g8
(g12
S'\x19\xce\xb7\xc8\xab3\xc8?'
p1194
tp1195
Rp1196
sg57
g5
sg58
g61
sg59
I315068
sg60
g8
(g12
S'\x82\xfd\xe8\xa4s.\xae?'
p1197
tp1198
Rp1199
sg62
I210500
sg63
g8
(g12
S'\xa1x\x97B\xa7\xd1\x87?'
p1200
tp1201
Rp1202
sg67
g61
sg71
I1204583
sg72
g61
sg73
I2027865
sg74
g61
ssS'WAKEHAM JOHN'
p1203
(dp1204
g3
g5
sg4
g5
sg6
I103773
sg7
g61
sg18
I00
sg19
g5
sg20
g5
sg22
g5
sg23
g8
(g12
S'\xb6\xf1g\xa1l\x02\xdd?'
p1205
tp1206
Rp1207
sg27
g61
sg31
g5
sg32
g5
sg33
g5
sg34
g5
sg35
g5
sg36
g61
sg37
g61
sg41
I109298
sg42
g61
sg46
g5
sg47
g5
sg48
g5
sg49
g61
sg53
g61
sg57
g5
sg58
g61
sg59
g5
sg60
g61
sg62
g5
sg63
g8
(g12
S'{\xa3\xd0?\xd5\xd7`?'
p1208
tp1209
Rp1210
sg67
g61
sg71
I213071
sg72
g61
sg73
g5
sg74
g61
ssS'POWERS WILLIAM'
p1211
(dp1212
g3
I653
sg4
g5
sg6
g5
sg7
g61
sg18
I00
sg19
I-17500
sg20
S'ken.powers@enron.com'
p1213
sg22
g5
sg23
g61
sg27
g61
sg31
g5
sg32
I12
sg33
g5
sg34
I26
sg35
g5
sg36
F0.0
sg37
g8
(g12
S'\x00\x00\x00\x00\x00\x00\x00\x00'
p1214
tp1215
Rp1216
sg41
I17500
sg42
g61
sg46
g5
sg47
g5
sg48
I0
sg49
g61
sg53
g61
sg57
I0
sg58
F0.0
sg59
g5
sg60
g61
sg62
g5
sg63
g61
sg67
g8
(g12
S'\x00\x00\x00\x00\x00\x00\x00\x00'
p1217
tp1218
Rp1219
sg71
g5
sg72
F0.018376722817764167
sg73
g5
sg74
g8
(g12
S'\x00\x00\x00\x00\x00\x00\x00\x00'
p1220
tp1221
Rp1222
ssS'GOLD JOSEPH'
p1223
(dp1224
g3
g5
sg4
g5
sg6
g5
sg7
g8
(g12
S'NOQ\x03\xacr\xc6?'
p1225
tp1226
Rp1227
sg18
I00
sg19
g5
sg20
S'joe.gold@enron.com'
p1228
sg22
I304805
sg23
g61
sg27
g8
(g12
S'\x8a\xf1\xfd\x9c\x893\x93?'
p1229
tp1230
Rp1231
sg31
g5
sg32
g5
sg33
g5
sg34
g5
sg35
I819288
sg36
g61
sg37
g61
sg41
g5
sg42
g8
(g12
S'\x7f\xac\xf6\x0e\xd5>\xb4?'
p1232
tp1233
Rp1234
sg46
I750000
sg47
I877611
sg48
g5
sg49
g8
(g12
S'\x121\xa8\x8f\xbb\xf3\xb5?'
p1235
tp1236
Rp1237
sg53
g8
(g12
S'\x8a\xcd\xe6\xf9\xe0c\xcf?'
p1238
tp1239
Rp1240
sg57
g5
sg58
g61
sg59
I441096
sg60
g8
(g12
S'\xdfoa\x05b\xd5\x89?'
p1241
tp1242
Rp1243
sg62
I272880
sg63
g8
(g12
S'\xff\xa2m\x7fT:\x95?'
p1244
tp1245
Rp1246
sg67
g61
sg71
I2146973
sg72
g61
sg73
I436515
sg74
g61
ssS'BANNANTINE JAMES M'
p1247
(dp1248
g3
I566
sg4
g5
sg6
I56301
sg7
g8
(g12
S'\xa4P\xaa8V\x13\xd0?'
p1249
tp1250
Rp1251
sg18
I00
sg19
I-5104
sg20
S'james.bannantine@enron.com'
p1252
sg22
g5
sg23
g8
(g12
S'\xf9&\x94P\x8fp\xcf?'
p1253
tp1254
Rp1255
sg27
g8
(g12
S':\x02\xb3\x97\xcb\x89\xbb?'
p1256
tp1257
Rp1258
sg31
I-560222
sg32
I465
sg33
g5
sg34
I29
sg35
I864523
sg36
F0.0
sg37
g8
(g12
S'\x9c\xae\x13k\xff&\xea?'
p1259
tp1260
Rp1261
sg41
g5
sg42
g8
(g12
S'!v\x93\x8f\xfd\\\xb5?'
p1262
tp1263
Rp1264
sg46
g5
sg47
I5243487
sg48
I39
sg49
g61
sg53
g8
(g12
S'\x00\x00\x00\x00\x00\x00\x00\x00'
p1265
tp1266
Rp1267
sg57
I0
sg58
F0.06890459363957598
sg59
I1757552
sg60
g8
(g12
S'7\x05\xe2\x05t"\xbe?'
p1268
tp1269
Rp1270
sg62
I477
sg63
g8
(g12
S'\xd0bP\xac\xa6\x1d\x82?'
p1271
tp1272
Rp1273
sg67
g8
(g12
S'm\xff\xe5\xcaJJ\xd4?'
p1274
tp1275
Rp1276
sg71
I916197
sg72
F0.8215547703180212
sg73
I4046157
sg74
g8
(g12
S'\x00\x00\x00\x00\x00\x00\x00\x00'
p1277
tp1278
Rp1279
ssS'DUNCAN JOHN H'
p1280
(dp1281
g3
g5
sg4
g5
sg6
g5
sg7
g61
sg18
I00
sg19
I-25000
sg20
g5
sg22
g5
sg23
g61
sg27
g8
(g12
S'\nF1wvS\x81?'
p1282
tp1283
Rp1284
sg31
g5
sg32
g5
sg33
g5
sg34
g5
sg35
g5
sg36
g61
sg37
g61
sg41
I102492
sg42
g61
sg46
g5
sg47
I371750
sg48
g5
sg49
g61
sg53
g61
sg57
g5
sg58
g61
sg59
g5
sg60
g8
(g12
S'i\xe2\xbb\xe7\xb9\xf8\x85?'
p1285
tp1286
Rp1287
sg62
g5
sg63
g8
(g12
S'\xa1\xe7\x1d\x19\x12yH?'
p1288
tp1289
Rp1290
sg67
g61
sg71
I77492
sg72
g61
sg73
I371750
sg74
g61
ssS'SHAPIRO RICHARD S'
p1291
(dp1292
g3
I15149
sg4
g5
sg6
I137767
sg7
g8
(g12
S'\xfcX\xc36\xd0\xfd\xc5?'
p1293
tp1294
Rp1295
sg18
I00
sg19
g5
sg20
S'richard.shapiro@enron.com'
p1296
sg22
g5
sg23
g8
(g12
S'@\xce\\.SC\xe3?'
p1297
tp1298
Rp1299
sg27
g8
(g12
S'\x89%~\xd4\xecz\x95?'
p1300
tp1301
Rp1302
sg31
g5
sg32
I4527
sg33
g5
sg34
I1215
sg35
I705
sg36
F0.053497942386831275
sg37
g8
(g12
S'\xb7=\xf9\xc4\x89C\xd2?'
p1303
tp1304
Rp1305
sg41
g5
sg42
g8
(g12
S'D\x01\xdf\x8e\xef\xc9\x11?'
p1306
tp1307
Rp1308
sg46
I650000
sg47
I987001
sg48
I74
sg49
g8
(g12
S"\xcc\x1a\xb5'M\xb9\xb2?"
p1309
tp1310
Rp1311
sg53
g8
(g12
S'\x805\xeb3\xa9\xf3\xce?'
p1312
tp1313
Rp1314
sg57
I65
sg58
F0.0048848108786058485
sg59
I379164
sg60
g8
(g12
S'\xda\xe5\x1d\xebT\x06\x92?'
p1315
tp1316
Rp1317
sg62
I269076
sg63
g8
(g12
S'\x9a\x9e\xf3\x9cC\xe9\x84?'
p1318
tp1319
Rp1320
sg67
g8
(g12
S'3#\xb2\xa3\xc5\x03\x97?'
p1321
tp1322
Rp1323
sg71
I1057548
sg72
F0.29883160604660375
sg73
I607837
sg74
g8
(g12
S'\xb3\xd2\xe8\x11\x15d\xab?'
p1324
tp1325
Rp1326
ssS'SHERRIFF JOHN R'
p1327
(dp1328
g3
I3187
sg4
g5
sg6
g5
sg7
g8
(g12
S'\r\xd4\xb3\xcf\xea\xba\xcc?'
p1329
tp1330
Rp1331
sg18
I00
sg19
g5
sg20
S'john.sherriff@enron.com'
p1332
sg22
I554422
sg23
g61
sg27
g8
(g12
S't\xf8%n\x94\x86\xb0?'
p1333
tp1334
Rp1335
sg31
g5
sg32
I2103
sg33
g5
sg34
I92
sg35
I1852186
sg36
F0.25
sg37
g8
(g12
S'/\xc5\xb2\xe5<\xe3\xe4?'
p1336
tp1337
Rp1338
sg41
g5
sg42
g8
(g12
S'g\xa3\x04\xa5}\xe2\xc6?'
p1339
tp1340
Rp1341
sg46
I1500000
sg47
I3128982
sg48
I28
sg49
g8
(g12
S'\x11\xac\xa3\xcd\xfb\x14\xc7?'
p1342
tp1343
Rp1344
sg53
g8
(g12
S'\x8fC\xb0-v\xad\xd8?'
p1345
tp1346
Rp1347
sg57
I23
sg58
F0.008785691873235017
sg59
I1293424
sg60
g8
(g12
S'\xb4\x9c\x84\xca\x8bP\xab?'
p1348
tp1349
Rp1350
sg62
I428780
sg63
g8
(g12
S't\xa73\x1a\xf8n\xa5?'
p1351
tp1352
Rp1353
sg67
g8
(g12
S'r\x19\xed\x8ed\xb2\xa4?'
p1354
tp1355
Rp1356
sg71
I4335388
sg72
F0.6598682146219015
sg73
I1835558
sg74
g8
(g12
S'\x00\x00\x00\x00\x00\x00\xd0?'
p1357
tp1358
Rp1359
ssS'SHELBY REX'
p1360
(dp1361
g3
I225
sg4
g5
sg6
I22884
sg7
g8
(g12
S'\xa7\xde\x00-~\x9a\xc9?'
p1362
tp1363
Rp1364
sg18
I01
sg19
I-4167
sg20
S'rex.shelby@enron.com'
p1365
sg22
g5
sg23
g8
(g12
S'\xfb\xf7\x90\x9d\x9fu\xb9?'
p1366
tp1367
Rp1368
sg27
g8
(g12
S'AJ\x12\xd4\xecn\xaa?'
p1369
tp1370
Rp1371
sg31
g5
sg32
I91
sg33
g5
sg34
I39
sg35
I1573324
sg36
F0.358974358974359
sg37
g8
(g12
S'/\xf9\xf2\xea<$\xd9?'
p1372
tp1373
Rp1374
sg41
g5
sg42
g8
(g12
S'\xb3>\xb5\x02rp\xc3?'
p1375
tp1376
Rp1377
sg46
I200000
sg47
I2493616
sg48
I13
sg49
g8
(g12
S':\xda\xbcOq\xc9\x90?'
p1378
tp1379
Rp1380
sg53
g8
(g12
S'\xd2\xee\xe9\xa8Q[\xc8?'
p1381
tp1382
Rp1383
sg57
I14
sg58
F0.057777777777777775
sg59
I869220
sg60
g8
(g12
S'K\xee\xeb\x00\xaf*\xa8?'
p1384
tp1385
Rp1386
sg62
I211844
sg63
g8
(g12
S'\x8f\x8a%j \xd0\x93?'
p1387
tp1388
Rp1389
sg67
g8
(g12
S'\r\x884\x9a\x82\x03\xd1?'
p1390
tp1391
Rp1392
sg71
I2003885
sg72
F0.40444444444444444
sg73
I1624396
sg74
g8
(g12
S'\x97o\xf9\x96o\xf9\xd6?'
p1393
tp1394
Rp1395
ssS'LEMAISTRE CHARLES'
p1396
(dp1397
g3
g5
sg4
g5
sg6
g5
sg7
g61
sg18
I00
sg19
I-25000
sg20
g5
sg22
g5
sg23
g61
sg27
g8
(g12
S'WJ.]$\n\x83?'
p1398
tp1399
Rp1400
sg31
g5
sg32
g5
sg33
g5
sg34
g5
sg35
g5
sg36
g61
sg37
g61
sg41
I112492
sg42
g61
sg46
g5
sg47
I412878
sg48
g5
sg49
g61
sg53
g61
sg57
g5
sg58
g61
sg59
g5
sg60
g8
(g12
S'6\x99D\xa2\x8el\x88?'
p1401
tp1402
Rp1403
sg62
g5
sg63
g8
(g12
S'\x03\xcc\x83\xf0\x18\xa3K?'
p1404
tp1405
Rp1406
sg67
g61
sg71
I87492
sg72
g61
sg73
I412878
sg74
g61
ssS'DEFFNER JOSEPH M'
p1407
(dp1408
g3
I714
sg4
g5
sg6
I41626
sg7
g8
(g12
S')\xdbc6\xff=\xc4?'
p1409
tp1410
Rp1411
sg18
I00
sg19
g5
sg20
S'joseph.deffner@enron.com'
p1412
sg22
I335349
sg23
g8
(g12
S"g%\xef\x1c'9\xc7?"
p1413
tp1414
Rp1415
sg27
g8
(g12
S':\xccj\xdf\xf5\xf0p?'
p1416
tp1417
Rp1418
sg31
g5
sg32
I552
sg33
g5
sg34
I74
sg35
I25553
sg36
F0.05405405405405406
sg37
g8
(g12
S'8z\xb8o,\x93\xe8?'
p1419
tp1420
Rp1421
sg41
g5
sg42
g8
(g12
S'\x1d\x13\x96v^4d?'
p1422
tp1423
Rp1424
sg46
I600000
sg47
I159211
sg48
I115
sg49
g8
(g12
S'\xa9\x8f\xbb\xf3\x15\x1c\xb1?'
p1425
tp1426
Rp1427
sg53
g8
(g12
S'@\xdc\xac\x9d}\xb2\xc7?'
p1428
tp1429
Rp1430
sg57
I4
sg58
F0.16106442577030813
sg59
I141833
sg60
g8
(g12
S'|y~\xe1G\xe4:?'
p1431
tp1432
Rp1433
sg62
I206121
sg63
g8
(g12
S'\x82\xa9P\xf8<\xe6\x87?'
p1434
tp1435
Rp1436
sg67
g8
(g12
S'sK\xed\x9d\xd3\xb6\xe7?'
p1437
tp1438
Rp1439
sg71
I1208649
sg72
F0.773109243697479
sg73
I17378
sg74
g8
(g12
S'\xd0\xba\xc1\x14\xf9\xac\xab?'
p1440
tp1441
Rp1442
ssS'KISHKILL JOSEPH G'
p1443
(dp1444
g3
g5
sg4
g5
sg6
I116335
sg7
g8
(g12
S'~\xf6\xae\x14\x11\xd2\xca?'
p1445
tp1446
Rp1447
sg18
I00
sg19
I-51042
sg20
S'joe.kishkill@enron.com'
p1448
sg22
g5
sg23
g8
(g12
S'<\xb8y3YC\xe0?'
p1449
tp1450
Rp1451
sg27
g8
(g12
S'\xf9R\x82\xaekw\x96?'
p1452
tp1453
Rp1454
sg31
g5
sg32
g5
sg33
g5
sg34
g5
sg35
I465357
sg36
g61
sg37
g61
sg41
g5
sg42
g8
(g12
S'+\x0c\x94U\xb4\xff\xa6?'
p1455
tp1456
Rp1457
sg46
g5
sg47
I1034346
sg48
g5
sg49
g61
sg53
g8
(g12
S'\xa9\xb7\xf5\xe7-\x06\xc4?'
p1458
tp1459
Rp1460
sg57
g5
sg58
g61
sg59
I1034346
sg60
g61
sg62
I174246
sg63
g8
(g12
S'\x12\xf9\x92\x15\xcf\xdf{?'
p1461
tp1462
Rp1463
sg67
g61
sg71
I704896
sg72
g61
sg73
g5
sg74
g61
ssS'WHALLEY LAWRENCE G'
p1464
(dp1465
g3
I6019
sg4
g5
sg6
I57838
sg7
g8
(g12
S'`\x12@R8\xe7\xd3?'
p1466
tp1467
Rp1468
sg18
I00
sg19
g5
sg20
S'greg.whalley@enron.com'
p1469
sg22
I808346
sg23
g8
(g12
S'\xbd\xe4\xdeZn&\xd0?'
p1470
tp1471
Rp1472
sg27
g8
(g12
S'\xa6\xd9\xcd1\xf2\xe3\xbf?'
p1473
tp1474
Rp1475
sg31
g5
sg32
I3920
sg33
g5
sg34
I556
sg35
I301026
sg36
F0.04316546762589928
sg37
g8
(g12
S'\xa9c\xcc\x0e\x93\x9b\xe4?'
p1476
tp1477
Rp1478
sg41
g5
sg42
g8
(g12
S"\xe2\xfa_i'\xc1\x9d?"
p1479
tp1480
Rp1481
sg46
I3000000
sg47
I6079137
sg48
I186
sg49
g8
(g12
S'\x90i\xa1\xec\x9b\xa5\xd7?'
p1482
tp1483
Rp1484
sg53
g8
(g12
S'm\x15\xba\xfd\xd2`\xdd?'
p1485
tp1486
Rp1487
sg57
I24
sg58
F0.03090214321315833
sg59
I2796177
sg60
g8
(g12
S'%\xcfne&r\xb8?'
p1488
tp1489
Rp1490
sg62
I510364
sg63
g8
(g12
S'\xf2\xb52\x06\x10 \xa7?'
p1491
tp1492
Rp1493
sg67
g8
(g12
S'l\xab\x017\x0b3\xc2?'
p1494
tp1495
Rp1496
sg71
I4677574
sg72
F0.6512709752450573
sg73
I3282960
sg74
g8
(g12
S"'!\x8a\xbf\xc8\x19\xa6?"
p1497
tp1498
Rp1499
ssS'MCCONNELL MICHAEL S'
p1500
(dp1501
g3
I3329
sg4
g5
sg6
I81364
sg7
g8
(g12
S'\xd4l\xba\xd5\xb2\x17\xce?'
p1502
tp1503
Rp1504
sg18
I00
sg19
g5
sg20
S'mike.mcconnell@enron.com'
p1505
sg22
I554422
sg23
g8
(g12
S'\xbd\xdc$\x0ft\xbc\xd6?'
p1506
tp1507
Rp1508
sg27
g8
(g12
S'\n\xcf\xfc\xe3\xa4a\xb0?'
p1509
tp1510
Rp1511
sg31
g5
sg32
I2189
sg33
g5
sg34
I2742
sg35
I540
sg36
F0.07075127644055434
sg37
g8
(g12
S'\xf1\x17\xc4K\xf4\xcf\xe4?'
p1512
tp1513
Rp1514
sg41
g5
sg42
g8
(g12
S'nZ\xe7z-:\x0b?'
p1515
tp1516
Rp1517
sg46
I1100000
sg47
I3101279
sg48
I92
sg49
g8
(g12
S'\x84\x7f\xbd\xfd\x1e\xa0\xc0?'
p1518
tp1519
Rp1520
sg53
g8
(g12
S'\xf986\xadD\x01\xd5?'
p1521
tp1522
Rp1523
sg57
I194
sg58
F0.02763592670471613
sg59
I1478269
sg60
g8
(g12
S'.r:\xe9d%\xa8?'
p1524
tp1525
Rp1526
sg62
I365038
sg63
g8
(g12
S'gF\x03\xe4\xe0\xc6\x94?'
p1527
tp1528
Rp1529
sg67
g8
(g12
S'\xc6R\r\x9f\x9aF\xc0?'
p1530
tp1531
Rp1532
sg71
I2101364
sg72
F0.657554821267648
sg73
I1623010
sg74
g8
(g12
S'8bvr\xc1\x1c\xb2?'
p1533
tp1534
Rp1535
ssS'PIRO JIM'
p1536
(dp1537
g3
I58
sg4
g5
sg6
g5
sg7
g8
(g12
S'I\xed\xd9\xab\xa1\x8b\xc3?'
p1538
tp1539
Rp1540
sg18
I00
sg19
g5
sg20
S'jim.piro@enron.com'
p1541
sg22
g5
sg23
g61
sg27
g8
(g12
S'\x1e\xf5!\xbf\xddv^?'
p1542
tp1543
Rp1544
sg31
g5
sg32
I3
sg33
g5
sg34
I16
sg35
g5
sg36
F0.0625
sg37
g8
(g12
S'k\xddV\x99\x8c_\xa1?'
p1545
tp1546
Rp1547
sg41
g5
sg42
g61
sg46
g5
sg47
I47304
sg48
I0
sg49
g61
sg53
g61
sg57
I1
sg58
F0.0
sg59
I47304
sg60
g61
sg62
g5
sg63
g61
sg67
g8
(g12
S'\x00\x00\x00\x00\x00\x00\x00\x00'
p1548
tp1549
Rp1550
sg71
g5
sg72
F0.05172413793103448
sg73
g5
sg74
g8
(g12
S'\x00\x00\x00\x00\x00\x00\xb0?'
p1551
tp1552
Rp1553
ssS'DELAINEY DAVID W'
p1554
(dp1555
g3
I3093
sg4
g5
sg6
I86174
sg7
g8
(g12
S'\xa5:\x98\xc5\x00\xf3\xcc?'
p1556
tp1557
Rp1558
sg18
I01
sg19
g5
sg20
S'david.delainey@enron.com'
p1559
sg22
I1294981
sg23
g8
(g12
S'\xca52\x1f+\x15\xd8?'
p1560
tp1561
Rp1562
sg27
g8
(g12
S'm\x15T\x03\x97\r\xb3?'
p1563
tp1564
Rp1565
sg31
g5
sg32
I2097
sg33
g5
sg34
I3069
sg35
I1661
sg36
F0.198435972629521
sg37
g8
(g12
S'2\xbf\xb8u;z\xe5?'
p1566
tp1567
Rp1568
sg41
g5
sg42
g8
(g12
S'`l\xd3\x95b\xfd$?'
p1569
tp1570
Rp1571
sg46
I3000000
sg47
I3614261
sg48
I66
sg49
g8
(g12
S'\x90i\xa1\xec\x9b\xa5\xd7?'
p1572
tp1573
Rp1574
sg53
g8
(g12
S'A\xef\x10\xad\x1c\x03\xd5?'
p1575
tp1576
Rp1577
sg57
I609
sg58
F0.02133850630455868
sg59
I1323148
sg60
g8
(g12
S'4\xb1j\xac\x8b\r\xb1?'
p1578
tp1579
Rp1580
sg62
I365163
sg63
g8
(g12
S'l\x80/\xff+y\xa7?'
p1581
tp1582
Rp1583
sg67
g8
(g12
S'\xc8\xd8\xff4P"\xb9?'
p1584
tp1585
Rp1586
sg71
I4747979
sg72
F0.6779825412221144
sg73
I2291113
sg74
g8
(g12
S'f\x99e\x96Yf\xc9?'
p1587
tp1588
Rp1589
ssS'SULLIVAN-SHAKLOVITZ COLLEEN'
p1590
(dp1591
g3
g5
sg4
I181993
sg6
g5
sg7
g61
sg18
I00
sg19
g5
sg20
g5
sg22
I554422
sg23
g61
sg27
g8
(g12
S'!\xbc\x1d\xd4\xd4L\x9d?'
p1592
tp1593
Rp1594
sg31
g5
sg32
g5
sg33
g5
sg34
g5
sg35
I162
sg36
g61
sg37
g61
sg41
g5
sg42
g8
(g12
S'\xb9\x0f\xa8\xa0\xd41\xf0>'
p1595
tp1596
Rp1597
sg46
I100000
sg47
I1362375
sg48
g5
sg49
g8
(g12
S'\x08\t\x84\x7f\xbd\xfdn?'
p1598
tp1599
Rp1600
sg53
g8
(g12
S'\x04\xca\xfa9\xe7\xb3\xc2?'
p1601
tp1602
Rp1603
sg57
g5
sg58
g61
sg59
g5
sg60
g8
(g12
S'\xdd\x91\xbf\r\xbaB\xa4?'
p1604
tp1605
Rp1606
sg62
I162779
sg63
g8
(g12
S'\xf5\xe6\xf9J\xa8\xc2\x83?'
p1607
tp1608
Rp1609
sg67
g61
sg71
I999356
sg72
g61
sg73
I1362375
sg74
g61
ssS'WROBEL BRUCE'
p1610
(dp1611
g3
g5
sg4
g5
sg6
g5
sg7
g61
sg18
I00
sg19
g5
sg20
g5
sg22
g5
sg23
g61
sg27
g8
(g12
S'pR\x18]+\x89n?'
p1612
tp1613
Rp1614
sg31
g5
sg32
g5
sg33
g5
sg34
g5
sg35
g5
sg36
g61
sg37
g61
sg41
g5
sg42
g61
sg46
g5
sg47
I139130
sg48
g5
sg49
g61
sg53
g61
sg57
g5
sg58
g61
sg59
g5
sg60
g8
(g12
S'\x9e\x1d\nnm3p?'
p1615
tp1616
Rp1617
sg62
g5
sg63
g61
sg67
g61
sg71
g5
sg72
g61
sg73
I139130
sg74
g61
ssS'LINDHOLM TOD A'
p1618
(dp1619
g3
g5
sg4
I204075
sg6
I57727
sg7
g8
(g12
S'h{\xb5\xe4\xd4\xfd\xc6?'
p1620
tp1621
Rp1622
sg18
I00
sg19
g5
sg20
S'tod.lindholm@enron.com'
p1623
sg22
I175000
sg23
g8
(g12
S'\x02\x8e`\xe2y\x1e\xd0?'
p1624
tp1625
Rp1626
sg27
g8
(g12
S'\xc0\x9a\xa6\xe170\xb0?'
p1627
tp1628
Rp1629
sg31
g5
sg32
g5
sg33
g5
sg34
g5
sg35
I2630
sg36
g61
sg37
g61
sg41
g5
sg42
g8
(g12
S'# \x86F\xf4\x9f0?'
p1630
tp1631
Rp1632
sg46
I200000
sg47
I3064208
sg48
g5
sg49
g8
(g12
S':\xda\xbcOq\xc9\x90?'
p1633
tp1634
Rp1635
sg53
g8
(g12
S'\x84,\xcf\xcff1\xcb?'
p1636
tp1637
Rp1638
sg57
g5
sg58
g61
sg59
I514847
sg60
g8
(g12
S'}\xf6\xf9\x13S\xfa\xb2?'
p1639
tp1640
Rp1641
sg62
I236457
sg63
g8
(g12
S'\xa9\xc6\x15\xc8\x95Q\x81?'
p1642
tp1643
Rp1644
sg67
g61
sg71
I875889
sg72
g61
sg73
I2549361
sg74
g61
ssS'MEYER JEROME J'
p1645
(dp1646
g3
g5
sg4
g5
sg6
I2151
sg7
g61
sg18
I00
sg19
I-38346
sg20
g5
sg22
g5
sg23
g8
(g12
S'B\xfaI\x90\x86\xf1\x81?'
p1647
tp1648
Rp1649
sg27
g61
sg31
g5
sg32
g5
sg33
g5
sg34
g5
sg35
g5
sg36
g61
sg37
g61
sg41
I38346
sg42
g61
sg46
g5
sg47
g5
sg48
g5
sg49
g61
sg53
g61
sg57
g5
sg58
g61
sg59
g5
sg60
g61
sg62
g5
sg63
g8
(g12
S'\x7f\\\xb2\x81\xf2G\xf4>'
p1650
tp1651
Rp1652
sg67
g61
sg71
I2151
sg72
g61
sg73
g5
sg74
g61
ssS'LAY KENNETH L'
p1653
(dp1654
g3
I4273
sg4
I202911
sg6
I99832
sg7
g8
(g12
S'\x00\x00\x00\x00\x00\x00\xf0?'
p1655
tp1656
Rp1657
sg18
I01
sg19
I-300000
sg20
S'kenneth.lay@enron.com'
p1658
sg22
I3600000
sg23
g8
(g12
S'v\x18\x86\xbf\xfc\xe7\xdb?'
p1659
tp1660
Rp1661
sg27
g8
(g12
S'\x00\x00\x00\x00\x00\x00\xf0?'
p1662
tp1663
Rp1664
sg31
g5
sg32
I2411
sg33
I81525000
sg34
I36
sg35
I10359729
sg36
F0.4444444444444444
sg37
g8
(g12
S'\x81+\xa9\xf8\x1e\xc6\xe1?'
p1665
tp1666
Rp1667
sg41
g5
sg42
g8
(g12
S'\xff\xff\xff\xff\xff\xff\xef?'
p1668
tp1669
Rp1670
sg46
I7000000
sg47
I49110078
sg48
I123
sg49
g8
(g12
S'($\x10\xfe\xf5\xf6\xeb?'
p1671
tp1672
Rp1673
sg53
g8
(g12
S')\x82Y\x08\xd7\xe0\xee?'
p1674
tp1675
Rp1676
sg57
I16
sg58
F0.028785396676807865
sg59
I14761694
sg60
g8
(g12
S'\xff\xff\xff\xff\xff\xff\xef?'
p1677
tp1678
Rp1679
sg62
I1072321
sg63
g8
(g12
S'\xff\xff\xff\xff\xff\xff\xef?'
p1680
tp1681
Rp1682
sg67
g8
(g12
S'8(\xbd)\xe8\xf3\xc0?'
p1683
tp1684
Rp1685
sg71
I103559793
sg72
F0.5642405803884858
sg73
I34348384
sg74
g8
(g12
S'\x1c\xc7q\x1c\xc7q\xdc?'
p1686
tp1687
Rp1688
ssS'BUTTS ROBERT H'
p1689
(dp1690
g3
g5
sg4
g5
sg6
I9410
sg7
g8
(g12
S'h&\xbb\x9e_F\xc6?'
p1691
tp1692
Rp1693
sg18
I00
sg19
I-75000
sg20
S'bob.butts@enron.com'
p1694
sg22
I175000
sg23
g8
(g12
S'm\xe5\xf4c0\xbe\xa4?'
p1695
tp1696
Rp1697
sg27
g8
(g12
S'SB\x03\xe2\xb5<\x83?'
p1698
tp1699
Rp1700
sg31
g5
sg32
g5
sg33
g5
sg34
g5
sg35
I150656
sg36
g61
sg37
g61
sg41
g5
sg42
g8
(g12
S'\xa9x\xba\x1fW\xc8\x8d?'
p1701
tp1702
Rp1703
sg46
I750000
sg47
I417619
sg48
g5
sg49
g8
(g12
S'\x121\xa8\x8f\xbb\xf3\xb5?'
p1704
tp1705
Rp1706
sg53
g8
(g12
S's=\xd1&\xa4\x14\xce?'
p1707
tp1708
Rp1709
sg57
g5
sg58
g61
sg59
I417619
sg60
g61
sg62
I261516
sg63
g8
(g12
S'[\xe13\xd4\xd8$\x89?'
p1710
tp1711
Rp1712
sg67
g61
sg71
I1271582
sg72
g61
sg73
g5
sg74
g61
ssS'OLSON CINDY K'
p1713
(dp1714
g3
I1184
sg4
I77716
sg6
I63791
sg7
g8
(g12
S'\x8b/\xeaO$X\xca?'
p1715
tp1716
Rp1717
sg18
I00
sg19
g5
sg20
S'cindy.olson@enron.com'
p1718
sg22
I100000
sg23
g8
(g12
S'\x92\xd6\xc9\x8f\x0f\xd1\xd1?'
p1719
tp1720
Rp1721
sg27
g8
(g12
S'&=)\x1a\xa3\x9c\xab?'
p1722
tp1723
Rp1724
sg31
g5
sg32
I856
sg33
g5
sg34
I52
sg35
I972
sg36
F0.28846153846153844
sg37
g8
(g12
S'v \xcc\x89A\xf1\xe6?'
p1725
tp1726
Rp1727
sg41
g5
sg42
g8
(g12
S'\xd3\xb7~C\x86\x8b\x18?'
p1728
tp1729
Rp1730
sg46
I750000
sg47
I2606763
sg48
I20
sg49
g8
(g12
S'\x121\xa8\x8f\xbb\xf3\xb5?'
p1731
tp1732
Rp1733
sg53
g8
(g12
S'U\xa9Z\xe1\xdb\xee\xd2?'
p1734
tp1735
Rp1736
sg57
I15
sg58
F0.016891891891891893
sg59
I969729
sg60
g8
(g12
S'\xcc$\xa3\x0f\xeaZ\xa8?'
p1737
tp1738
Rp1739
sg62
I329078
sg63
g8
(g12
S'\x03D\xd7\x90\xda!\x8a?'
p1740
tp1741
Rp1742
sg67
g8
(g12
S'\x02\xae\xe6\x83\x80\xe5\xb3?'
p1743
tp1744
Rp1745
sg71
I1321557
sg72
F0.722972972972973
sg73
I1637034
sg74
g8
(g12
S"b'vb'v\xd2?"
p1746
tp1747
Rp1748
ssS'MCDONALD REBECCA'
p1749
(dp1750
g3
I894
sg4
g5
sg6
g5
sg7
g8
(g12
S'\xc5\xca\x01\x14\xd9\x14\xca?'
p1751
tp1752
Rp1753
sg18
I00
sg19
g5
sg20
S'rebecca.mcdonald@enron.com'
p1754
sg22
g5
sg23
g61
sg27
g8
(g12
S'\xe7\x19\x1f\xaf\xaf\x13\xa2?'
p1755
tp1756
Rp1757
sg31
g5
sg32
I720
sg33
g5
sg34
I13
sg35
g5
sg36
F0.07692307692307693
sg37
g8
(g12
S'\xa0\xf7H\x84\x14\xa0\xe9?'
p1758
tp1759
Rp1760
sg41
g5
sg42
g61
sg46
g5
sg47
I1691366
sg48
I54
sg49
g61
sg53
g61
sg57
I1
sg58
F0.06040268456375839
sg59
I934065
sg60
g8
(g12
S'\xbb^!9#{\x96?'
p1761
tp1762
Rp1763
sg62
g5
sg63
g61
sg67
g8
(g12
S'kj\xb3\xbcb\xc9\xd1?'
p1764
tp1765
Rp1766
sg71
g5
sg72
F0.8053691275167785
sg73
I757301
sg74
g8
(g12
S'\x14;\xb1\x13;\xb1\xb3?'
p1767
tp1768
Rp1769
ssS'CUMBERLAND MICHAEL S'
p1770
(dp1771
g3
g5
sg4
g5
sg6
I22344
sg7
g8
(g12
S'C\x0e\xf5\xb6\xbb\xba\xc4?'
p1772
tp1773
Rp1774
sg18
I00
sg19
g5
sg20
g5
sg22
I275000
sg23
g8
(g12
S'\x17\xc14\xff\xd2\xda\xb8?'
p1775
tp1776
Rp1777
sg27
g8
(g12
S'\xde\xfbCnw\x00u?'
p1778
tp1779
Rp1780
sg31
g5
sg32
g5
sg33
g5
sg34
g5
sg35
I713
sg36
g61
sg37
g61
sg41
g5
sg42
g8
(g12
S'v\x81G7\xc2\xfd\x11?'
p1781
tp1782
Rp1783
sg46
I325000
sg47
I207940
sg48
g5
sg49
g8
(g12
S'\xce$\xbe\xab\xccv\xa0?'
p1784
tp1785
Rp1786
sg53
g8
(g12
S'\xdfy\xdeCq@\xc5?'
p1787
tp1788
Rp1789
sg57
g5
sg58
g61
sg59
I207940
sg60
g61
sg62
I184899
sg63
g8
(g12
S'Y\xbf\xeejS\xf3\x7f?'
p1790
tp1791
Rp1792
sg67
g61
sg71
I807956
sg72
g61
sg73
g5
sg74
g61
ssS'GAHN ROBERT S'
p1793
(dp1794
g3
g5
sg4
I73122
sg6
I50080
sg7
g8
(g12
S'\xb3jF\x93}\xee\xc4?'
p1795
tp1796
Rp1797
sg18
I00
sg19
I-1042
sg20
g5
sg22
g5
sg23
g8
(g12
S'\xb4\xc7\r"\xe3\xf4\xcb?'
p1798
tp1799
Rp1800
sg27
g8
(g12
S'\x9a\x02\xd1\x1cB9~?'
p1801
tp1802
Rp1803
sg31
g5
sg32
g5
sg33
g5
sg34
g5
sg35
I76547
sg36
g61
sg37
g61
sg41
g5
sg42
g8
(g12
S'\xa1\x11[B\x9fC~?'
p1804
tp1805
Rp1806
sg46
I509870
sg47
I318607
sg48
g5
sg49
g8
(g12
S'\x9e\xcc\xf4Lrf\xac?'
p1807
tp1808
Rp1809
sg53
g8
(g12
S'/>O^(\x12\xc6?'
p1810
tp1811
Rp1812
sg57
g5
sg58
g61
sg59
I235370
sg60
g8
(g12
S'{\x9f\x03|\xf6\x11c?'
p1813
tp1814
Rp1815
sg62
I192008
sg63
g8
(g12
S'\x86d\x82\xda\x9c\xce\x81?'
p1816
tp1817
Rp1818
sg67
g61
sg71
I900585
sg72
g61
sg73
I83237
sg74
g61
ssS'MCCLELLAN GEORGE'
p1819
(dp1820
g3
I1744
sg4
g5
sg6
I228763
sg7
g8
(g12
S'NOQ\x03\xacr\xc6?'
p1821
tp1822
Rp1823
sg18
I00
sg19
I-125000
sg20
S'george.mcclellan@enron.com'
p1824
sg22
g5
sg23
g8
(g12
S'\x00\x00\x00\x00\x00\x00\xf0?'
p1825
tp1826
Rp1827
sg27
g8
(g12
S'e\xe2+\x0b0\xaa\x94?'
p1828
tp1829
Rp1830
sg31
g5
sg32
I1469
sg33
g5
sg34
I49
sg35
I51587
sg36
F0.0
sg37
g8
(g12
S'n/\xbe\\\x0f\xd4\xea?'
p1831
tp1832
Rp1833
sg41
g5
sg42
g8
(g12
S'\x0c\xa8t\xb0Aet?'
p1834
tp1835
Rp1836
sg46
I900000
sg47
I947861
sg48
I52
sg49
g8
(g12
S'|\xd2\x94+a\xcb\xba?'
p1837
tp1838
Rp1839
sg53
g8
(g12
S'\xf7\xa8BG\x9aL\xce?'
p1840
tp1841
Rp1842
sg57
I0
sg58
F0.02981651376146789
sg59
I441096
sg60
g8
(g12
S'\x99\xc4\xf8\x0c\xc5\x05\x8e?'
p1843
tp1844
Rp1845
sg62
I263413
sg63
g8
(g12
S'\xb5\xf3\x1cl\xb5\x13\x8a?'
p1846
tp1847
Rp1848
sg67
g8
(g12
S'\xb0\x1b\xf2\xb1]\x8f\xc1?'
p1849
tp1850
Rp1851
sg71
I1318763
sg72
F0.8423165137614679
sg73
I506765
sg74
g8
(g12
S'\x00\x00\x00\x00\x00\x00\x00\x00'
p1852
tp1853
Rp1854
ssS'HERMANN ROBERT J'
p1855
(dp1856
g3
g5
sg4
g5
sg6
I48357
sg7
g8
(g12
S'\xa0n\x95\x96E\xbd\xc6?'
p1857
tp1858
Rp1859
sg18
I00
sg19
I-280000
sg20
S'robert.hermann@enron.com'
p1860
sg22
I150000
sg23
g8
(g12
S'^\x10!\xcf\xec\xfd\xca?'
p1861
tp1862
Rp1863
sg27
g8
(g12
S'\xf8\xf2\x0f+\xbb\xac\x8d?'
p1864
tp1865
Rp1866
sg31
g5
sg32
g5
sg33
g5
sg34
g5
sg35
I416441
sg36
g61
sg37
g61
sg41
g5
sg42
g8
(g12
S'2\x0f\xe2\xd3\xd0\x94\xa4?'
p1867
tp1868
Rp1869
sg46
I700000
sg47
I668132
sg48
g5
sg49
g8
(g12
S'\xef\xa5\xae[\x84V\xb4?'
p1870
tp1871
Rp1872
sg53
g8
(g12
S'\x90\x1d\x02Iz6\xce?'
p1873
tp1874
Rp1875
sg57
g5
sg58
g61
sg59
I480632
sg60
g8
(g12
S'\x9a\xbe\xd0 1\xf8u?'
p1876
tp1877
Rp1878
sg62
I262663
sg63
g8
(g12
S'S\x97\x95\x1e\xdd\xa7\x89?'
p1879
tp1880
Rp1881
sg67
g61
sg71
I1297461
sg72
g61
sg73
I187500
sg74
g61
ssS'SCRIMSHAW MATTHEW'
p1882
(dp1883
g3
g5
sg4
g5
sg6
g5
sg7
g61
sg18
I00
sg19
g5
sg20
S'matthew.scrimshaw@enron.com'
p1884
sg22
g5
sg23
g61
sg27
g8
(g12
S'\xa9\x07\xc1\xab\xf1\xbd\x90?'
p1885
tp1886
Rp1887
sg31
g5
sg32
g5
sg33
g5
sg34
g5
sg35
g5
sg36
g61
sg37
g61
sg41
g5
sg42
g61
sg46
g5
sg47
I759557
sg48
g5
sg49
g61
sg53
g61
sg57
g5
sg58
g61
sg59
g5
sg60
g8
(g12
S'\xdf\xca\xeeY[\x8c\x96?'
p1888
tp1889
Rp1890
sg62
g5
sg63
g61
sg67
g61
sg71
g5
sg72
g61
sg73
I759557
sg74
g61
ssS'GATHMANN WILLIAM D'
p1891
(dp1892
g3
g5
sg4
g5
sg6
g5
sg7
g8
(g12
S'e\x7f\xde]\x89$\xc5?'
p1893
tp1894
Rp1895
sg18
I00
sg19
g5
sg20
g5
sg22
g5
sg23
g61
sg27
g8
(g12
S'\xba\x85[C\xf9\xb8\xa4?'
p1896
tp1897
Rp1898
sg31
I-72419
sg32
g5
sg33
g5
sg34
g5
sg35
g5
sg36
g61
sg37
g61
sg41
g5
sg42
g61
sg46
g5
sg47
I1945360
sg48
g5
sg49
g61
sg53
g61
sg57
g5
sg58
g61
sg59
I264013
sg60
g8
(g12
S'\xd0\xf9\xb1\xbef\x18\xaa?'
p1899
tp1900
Rp1901
sg62
g5
sg63
g61
sg67
g61
sg71
g5
sg72
g61
sg73
I1753766
sg74
g61
ssS'HAEDICKE MARK E'
p1902
(dp1903
g3
I4009
sg4
I2157527
sg6
I76169
sg7
g8
(g12
S'\xe3\xa05\xd1k\x0f\xc7?'
p1904
tp1905
Rp1906
sg18
I00
sg19
I-934484
sg20
S'mark.haedicke@enron.com'
p1907
sg22
I983346
sg23
g8
(g12
S'\xfa\x13\xe7\x8f%H\xd5?'
p1908
tp1909
Rp1910
sg27
g8
(g12
S'=P\x16\x90!\xa6\x91?'
p1911
tp1912
Rp1913
sg31
I-329825
sg32
I1847
sg33
g5
sg34
I1941
sg35
I52382
sg36
F0.03142709943328181
sg37
g8
(g12
S'\xd8&7\tP\xce\xdc?'
p1914
tp1915
Rp1916
sg41
g5
sg42
g8
(g12
S'\x1b\xeb\xf2H\xb9\xb5t?'
p1917
tp1918
Rp1919
sg46
I1150000
sg47
I803094
sg48
I180
sg49
g8
(g12
S'\x16E\xba\x97\xban\xc1?'
p1920
tp1921
Rp1922
sg53
g8
(g12
S'(\xf8\xb1%M\x87\xd5?'
p1923
tp1924
Rp1925
sg57
I61
sg58
F0.04489897730107259
sg59
I524169
sg60
g8
(g12
S'\xcbd\xb2\xe1L\r\x92?'
p1926
tp1927
Rp1928
sg62
I374125
sg63
g8
(g12
S'\x1f\xb8\xcd[\x1a\x14\xa3?'
p1929
tp1930
Rp1931
sg67
g8
(g12
S'\x96\x95GPPq\xca?'
p1932
tp1933
Rp1934
sg71
I3859065
sg72
F0.4607133948615615
sg73
I608750
sg74
g8
(g12
S'\xf0T\x8cx6\x17\xa0?'
p1935
tp1936
Rp1937
ssS'BOWEN JR RAYMOND M'
p1938
(dp1939
g3
I1858
sg4
g5
sg6
I65907
sg7
g8
(g12
S'\x02\x18q$\xf9\r\xc5?'
p1940
tp1941
Rp1942
sg18
I01
sg19
I-833
sg20
S'raymond.bowen@enron.com'
p1943
sg22
I974293
sg23
g8
(g12
S'.\xc6=\xee\xb4h\xd2?'
p1944
tp1945
Rp1946
sg27
g8
(g12
S'!)z\x82\x8b\xadx?'
p1947
tp1948
Rp1949
sg31
g5
sg32
I1593
sg33
g5
sg34
I27
sg35
I1621
sg36
F0.5555555555555556
sg37
g8
(g12
S'^\xa4P\xd7\x91Q\xeb?'
p1950
tp1951
Rp1952
sg41
g5
sg42
g8
(g12
S'\xe2+\xce\xf0\xd3{$?'
p1953
tp1954
Rp1955
sg46
I1350000
sg47
I252055
sg48
I140
sg49
g8
(g12
S'\\[\xad\xff(\xa9\xc4?'
p1956
tp1957
Rp1958
sg53
g8
(g12
S'\x8d\xa9B\xf5R\x06\xd0?'
p1959
tp1960
Rp1961
sg57
I15
sg58
F0.07534983853606028
sg59
I252055
sg60
g61
sg62
I278601
sg63
g8
(g12
S'\xcd\x95\xc6\xd6>e\x9a?'
p1962
tp1963
Rp1964
sg67
g8
(g12
S'\x89~\x9d\xce(0\xd6?'
p1965
tp1966
Rp1967
sg71
I2669589
sg72
F0.8573735199138859
sg73
g5
sg74
g8
(g12
S'r\x1c\xc7q\x1c\xc7\xe1?'
p1968
tp1969
Rp1970
ssS'GILLIS JOHN'
p1971
(dp1972
g3
g5
sg4
g5
sg6
g5
sg7
g8
(g12
S'\x01\\\x9f\xcfx\xc1\xc3?'
p1973
tp1974
Rp1975
sg18
I00
sg19
g5
sg20
g5
sg22
g5
sg23
g61
sg27
g8
(g12
S'\x8a\x02\x91\xa6\x12\x9fe?'
p1976
tp1977
Rp1978
sg31
g5
sg32
g5
sg33
g5
sg34
g5
sg35
g5
sg36
g61
sg37
g61
sg41
g5
sg42
g61
sg46
g5
sg47
I85641
sg48
g5
sg49
g61
sg53
g61
sg57
g5
sg58
g61
sg59
I75838
sg60
g8
(g12
S'\xc0\xb1=\x90\xf2\xdf(?'
p1979
tp1980
Rp1981
sg62
g5
sg63
g61
sg67
g61
sg71
g5
sg72
g61
sg73
I9803
sg74
g61
ssS'FITZGERALD JAY L'
p1982
(dp1983
g3
I936
sg4
g5
sg6
I23870
sg7
g8
(g12
S'\x88\xac2\xfa\xb2?\xca?'
p1984
tp1985
Rp1986
sg18
I00
sg19
g5
sg20
S'jay.fitzgerald@enron.com'
p1987
sg22
I556416
sg23
g8
(g12
S'\xd1\xbe\x9f\x89F\x90\xba?'
p1988
tp1989
Rp1990
sg27
g8
(g12
S'Q!\xa0b\xaeX\xa1?'
p1991
tp1992
Rp1993
sg31
g5
sg32
I723
sg33
g5
sg34
I16
sg35
I285414
sg36
F0.5
sg37
g8
(g12
S'+\xbdb\x91\x8f\x8d\xe8?'
p1994
tp1995
Rp1996
sg41
g5
sg42
g8
(g12
S'\xa3]\x97\x0e\x1b6\x9c?'
p1997
tp1998
Rp1999
sg46
I350000
sg47
I1621236
sg48
I1
sg49
g8
(g12
S'\xf1\xaf\xb7\xdf\x03\x14\xa2?'
p2000
tp2001
Rp2002
sg53
g8
(g12
S'\x84\x06#\x8d\r\xe5\xc6?'
p2003
tp2004
Rp2005
sg57
I8
sg58
F0.0010683760683760685
sg59
I956775
sg60
g8
(g12
S'\xc2\xb4\xea\xce\x85\xb6\x93?'
p2006
tp2007
Rp2008
sg62
I199157
sg63
g8
(g12
S'\xf2\xc2\xecZ3\xfa\x8b?'
p2009
tp2010
Rp2011
sg67
g8
(g12
S'_,\xa5,s"t?'
p2012
tp2013
Rp2014
sg71
I1414857
sg72
F0.7724358974358975
sg73
I664461
sg74
g8
(g12
S'\x00\x00\x00\x00\x00\x00\xe0?'
p2015
tp2016
Rp2017
ssS'MORAN MICHAEL P'
p2018
(dp2019
g3
I672
sg4
g5
sg6
g5
sg7
g8
(g12
S'%\x9a\xae{Lc\xc4?'
p2020
tp2021
Rp2022
sg18
I00
sg19
g5
sg20
S'michael.moran@enron.com'
p2023
sg22
g5
sg23
g61
sg27
g8
(g12
S'V\x92\xcdN\x13\x1av?'
p2024
tp2025
Rp2026
sg31
g5
sg32
I127
sg33
g5
sg34
I19
sg35
g5
sg36
F0.0
sg37
g8
(g12
S'\xa9\xebA\x8a\x9d8\xc6?'
p2027
tp2028
Rp2029
sg41
g5
sg42
g61
sg46
g5
sg47
I221141
sg48
I0
sg49
g61
sg53
g61
sg57
I0
sg58
F0.0
sg59
I161602
sg60
g8
(g12
S'\xe9\xd0\x1e\xcf\xde\xd5Z?'
p2030
tp2031
Rp2032
sg62
g5
sg63
g61
sg67
g8
(g12
S'\x00\x00\x00\x00\x00\x00\x00\x00'
p2033
tp2034
Rp2035
sg71
g5
sg72
F0.18898809523809523
sg73
I59539
sg74
g8
(g12
S'\x00\x00\x00\x00\x00\x00\x00\x00'
p2036
tp2037
Rp2038
ssS'REDMOND BRIAN L'
p2039
(dp2040
g3
I1671
sg4
g5
sg6
I14689
sg7
g8
(g12
S'\xa0\xe8W\xbf\xd0\x01\xc6?'
p2041
tp2042
Rp2043
sg18
I00
sg19
g5
sg20
S'brian.redmond@enron.com'
p2044
sg22
g5
sg23
g8
(g12
S'\x8a\x87\x99\xa2fH\xb0?'
p2045
tp2046
Rp2047
sg27
g8
(g12
S'\xcb"[\xb1`\xa9\xc4?'
p2048
tp2049
Rp2050
sg31
g5
sg32
I1063
sg33
g5
sg34
I221
sg35
g5
sg36
F0.22171945701357465
sg37
g8
(g12
S'\x83\xbf\xe8\x94\x7f\x1d\xe4?'
p2051
tp2052
Rp2053
sg41
g5
sg42
g61
sg46
g5
sg47
I7890324
sg48
I204
sg49
g61
sg53
g8
(g12
S'SV]\xffh5\xb6?'
p2054
tp2055
Rp2056
sg57
I49
sg58
F0.12208258527827648
sg59
I381285
sg60
g8
(g12
S'{|\xd4\x8b\x18\xf9\xcb?'
p2057
tp2058
Rp2059
sg62
I96840
sg63
g8
(g12
S'\xd2\x01\xdfN\x14\x9fQ?'
p2060
tp2061
Rp2062
sg67
g8
(g12
S'Bq\x16\xc3\x86\xf9\xe1?'
p2063
tp2064
Rp2065
sg71
I111529
sg72
F0.6361460203470976
sg73
I7509039
sg74
g8
(g12
S'\x9cMa\x9cMa\xcc?'
p2066
tp2067
Rp2068
ssS'BAZELIDES PHILIP J'
p2069
(dp2070
g3
g5
sg4
I684694
sg6
g5
sg7
g61
sg18
I00
sg19
g5
sg20
g5
sg22
I93750
sg23
g61
sg27
g8
(g12
S'6\x93\x86\xd9\x18\x1f\xa1?'
p2071
tp2072
Rp2073
sg31
g5
sg32
g5
sg33
g5
sg34
g5
sg35
I874
sg36
g61
sg37
g61
sg41
g5
sg42
g8
(g12
S'k\x95~\xb4\xb1\x10\x16?'
p2074
tp2075
Rp2076
sg46
g5
sg47
I1599641
sg48
g5
sg49
g61
sg53
g8
(g12
S'%\xa7P\x00\x1d\x84\xb2?'
p2077
tp2078
Rp2079
sg57
g5
sg58
g61
sg59
g5
sg60
g8
(g12
S'K)\x02\xe55\xcc\xa7?'
p2080
tp2081
Rp2082
sg62
I80818
sg63
g8
(g12
S'\xda+R8\xd5\x01\x81?'
p2083
tp2084
Rp2085
sg67
g61
sg71
I860136
sg72
g61
sg73
I1599641
sg74
g61
ssS'BELDEN TIMOTHY N'
p2086
(dp2087
g3
I7991
sg4
I2144013
sg6
I17355
sg7
g8
(g12
S'\xee\x9c<_\xb0[\xc4?'
p2088
tp2089
Rp2090
sg18
I01
sg19
I-2334434
sg20
S'tim.belden@enron.com'
p2091
sg22
g5
sg23
g8
(g12
S'\n2\xc7\x97\xa6D\xb3?'
p2092
tp2093
Rp2094
sg27
g8
(g12
S'\xcdU\xa4\x90\xa6\x0e\x98?'
p2095
tp2096
Rp2097
sg31
g5
sg32
I5521
sg33
g5
sg34
I484
sg35
I210698
sg36
F0.2231404958677686
sg37
g8
(g12
S'4\x9a\x02%\xed\xe5\xe5?'
p2098
tp2099
Rp2100
sg41
g5
sg42
g8
(g12
S'\xb7\xec\xa6?{\xd3\x94?'
p2101
tp2102
Rp2103
sg46
I5249999
sg47
I1110705
sg48
I228
sg49
g8
(g12
S'P\xde\xf86$\xe7\xe4?'
p2104
tp2105
Rp2106
sg53
g8
(g12
S'yg@3\xe4\x9a\xc8?'
p2107
tp2108
Rp2109
sg57
I108
sg58
F0.028532098610937303
sg59
I157569
sg60
g8
(g12
S'\xba\xc6\xce}\xe0Q\x9c?'
p2110
tp2111
Rp2112
sg62
I213999
sg63
g8
(g12
S'\x82\xe9#\xfa\n3\xab?'
p2113
tp2114
Rp2115
sg67
g8
(g12
S'<\x97,\xbd\xb7\xcd\xc0?'
p2116
tp2117
Rp2118
sg71
I5501630
sg72
F0.6909022650481792
sg73
I953136
sg74
g8
(g12
S'3(\x15&\xde\x8f\xcc?'
p2119
tp2120
Rp2121
ssS'DURAN WILLIAM D'
p2122
(dp2123
g3
I904
sg4
g5
sg6
I25785
sg7
g8
(g12
S'x \xee\xb0\x12\x97\xc4?'
p2124
tp2125
Rp2126
sg18
I00
sg19
g5
sg20
S'w.duran@enron.com'
p2127
sg22
I1105218
sg23
g8
(g12
S'\xda\xc3f\\=\xb5\xbc?'
p2128
tp2129
Rp2130
sg27
g8
(g12
S'\xb3mx\x93$\x8d\xa1?'
p2131
tp2132
Rp2133
sg31
g5
sg32
I599
sg33
g5
sg34
I12
sg35
I1568
sg36
F0.25
sg37
g8
(g12
S'`0\xc6\xf9\x18\xfa\xe4?'
p2134
tp2135
Rp2136
sg41
g5
sg42
g8
(g12
S'<\x03\xf4"*\xd0#?'
p2137
tp2138
Rp2139
sg46
I750000
sg47
I1640910
sg48
I106
sg49
g8
(g12
S'\x121\xa8\x8f\xbb\xf3\xb5?'
p2140
tp2141
Rp2142
sg53
g8
(g12
S'3\xae,\xc4U9\xc8?'
p2143
tp2144
Rp2145
sg57
I3
sg58
F0.1172566371681416
sg59
I189041
sg60
g8
(g12
S'huM\xcaC\x98\xa5?'
p2146
tp2147
Rp2148
sg62
I210692
sg63
g8
(g12
S'\xcf\xaf\xfcD_\xb2\x94?'
p2149
tp2150
Rp2151
sg67
g8
(g12
S'q\xddr\x8f\xa0C\xe1?'
p2152
tp2153
Rp2154
sg71
I2093263
sg72
F0.6626106194690266
sg73
I1451869
sg74
g8
(g12
S'\x00\x00\x00\x00\x00\x00\xd0?'
p2155
tp2156
Rp2157
ssS'THORN TERENCE H'
p2158
(dp2159
g3
I266
sg4
I16586
sg6
I46145
sg7
g8
(g12
S'_R\x9a\xf8\xb0\xe3\xc5?'
p2160
tp2161
Rp2162
sg18
I00
sg19
g5
sg20
S'terence.thorn@enron.com'
p2163
sg22
I200000
sg23
g8
(g12
S'\x8f\xcb\xfd\x86\xdf\xc0\xc9?'
p2164
tp2165
Rp2166
sg27
g8
(g12
S'\xeb\xceo{;R\xb9?'
p2167
tp2168
Rp2169
sg31
g5
sg32
I73
sg33
g5
sg34
I41
sg35
I426629
sg36
F0.0
sg37
g8
(g12
S'\xec\x89\xba\x81\xd5\xac\xd0?'
p2170
tp2171
Rp2172
sg41
g5
sg42
g8
(g12
S'\x10\xfcC\x0c\xb7\x15\xa5?'
p2173
tp2174
Rp2175
sg46
g5
sg47
I4817796
sg48
I0
sg49
g61
sg53
g8
(g12
S'\xd0n\xb7\x03\xaa\x89\xc9?'
p2176
tp2177
Rp2178
sg57
I0
sg58
F0.0
sg59
I365320
sg60
g8
(g12
S'\x16\xf8\xdcD\xe3\x94\xc0?'
p2179
tp2180
Rp2181
sg62
I222093
sg63
g8
(g12
S'\xaf\x82\n?\xa2\x05\x82?'
p2182
tp2183
Rp2184
sg67
g8
(g12
S'\x00\x00\x00\x00\x00\x00\x00\x00'
p2185
tp2186
Rp2187
sg71
I911453
sg72
F0.2744360902255639
sg73
I4452476
sg74
g8
(g12
S'\x00\x00\x00\x00\x00\x00\x00\x00'
p2188
tp2189
Rp2190
ssS'FASTOW ANDREW S'
p2191
(dp2192
g3
g5
sg4
g5
sg6
I55921
sg7
g8
(g12
S'\xee\x0c\xa8\xb2\x1c6\xd0?'
p2193
tp2194
Rp2195
sg18
I01
sg19
I-1386055
sg20
S'andrew.fastow@enron.com'
p2196
sg22
I1736055
sg23
g8
(g12
S'\xd8\xb4s\xe9\x17:\xcf?'
p2197
tp2198
Rp2199
sg27
g8
(g12
S'\x8f\x80{\xa5v&\xa3?'
p2200
tp2201
Rp2202
sg31
g5
sg32
g5
sg33
g5
sg34
g5
sg35
I277464
sg36
g61
sg37
g61
sg41
g5
sg42
g8
(g12
S'\xff\xb5[\x11\xf0l\x9b?'
p2203
tp2204
Rp2205
sg46
I1300000
sg47
I1794412
sg48
g5
sg49
g8
(g12
S'\xcb\x95\xb0e\x8d\xda\xc3?'
p2206
tp2207
Rp2208
sg53
g8
(g12
S'AT\x02~@]\xd9?'
p2209
tp2210
Rp2211
sg57
g5
sg58
g61
sg59
I1794412
sg60
g61
sg62
I440698
sg63
g8
(g12
S'\xdd\xa3\xc3\xb3\xc9\xf7\x97?'
p2212
tp2213
Rp2214
sg67
g61
sg71
I2424083
sg72
g61
sg73
g5
sg74
g61
ssS'FOY JOE'
p2215
(dp2216
g3
I57
sg4
I181755
sg6
g5
sg7
g61
sg18
I00
sg19
g5
sg20
S'tracy.foy@enron.com'
p2217
sg22
g5
sg23
g61
sg27
g8
(g12
S'\x1a \xc6Rp%\x80?'
p2218
tp2219
Rp2220
sg31
g5
sg32
I2
sg33
g5
sg34
I13
sg35
g5
sg36
F0.0
sg37
g8
(g12
S'$,a\xe4~i\x91?'
p2221
tp2222
Rp2223
sg41
g5
sg42
g61
sg46
g5
sg47
I343434
sg48
I0
sg49
g61
sg53
g61
sg57
I0
sg58
F0.0
sg59
g5
sg60
g8
(g12
S'b\x9a:byH\x84?'
p2224
tp2225
Rp2226
sg62
g5
sg63
g8
(g12
S'(\x1f\x90\x7fS\xbb\\?'
p2227
tp2228
Rp2229
sg67
g8
(g12
S'\x00\x00\x00\x00\x00\x00\x00\x00'
p2230
tp2231
Rp2232
sg71
I181755
sg72
F0.03508771929824561
sg73
I343434
sg74
g8
(g12
S'\x00\x00\x00\x00\x00\x00\x00\x00'
p2233
tp2234
Rp2235
ssS'CALGER CHRISTOPHER F'
p2236
(dp2237
g3
I2598
sg4
g5
sg6
I35818
sg7
g8
(g12
S'\xee(k=, \xc4?'
p2238
tp2239
Rp2240
sg18
I01
sg19
I-262500
sg20
S'christopher.calger@enron.com'
p2241
sg22
I375304
sg23
g8
(g12
S'/\xa3e5\xad\xf8\xc3?'
p2242
tp2243
Rp2244
sg27
g8
(g12
S'\x90E\xc7\xfb!Zl?'
p2245
tp2246
Rp2247
sg31
g5
sg32
I2188
sg33
g5
sg34
I144
sg35
I486
sg36
F0.1736111111111111
sg37
g8
(g12
S'm\xcc{}\xf9\xd2\xea?'
p2248
tp2249
Rp2250
sg41
g5
sg42
g8
(g12
S'\xc7\x97d\x99\x91~\x08?'
p2251
tp2252
Rp2253
sg46
I1250000
sg47
I126027
sg48
I199
sg49
g8
(g12
S'9\xd0\xb3\xcb\xf1\x0b\xc3?'
p2254
tp2255
Rp2256
sg53
g8
(g12
S'\x84\xf0~\xd7~\x9f\xcb?'
p2257
tp2258
Rp2259
sg57
I25
sg58
F0.07659738260200154
sg59
I126027
sg60
g61
sg62
I240189
sg63
g8
(g12
S'\xa3\xb7\x91\x98;5\x90?'
p2260
tp2261
Rp2262
sg67
g8
(g12
S'`\x1e\xc4<4\x8e\xd6?'
p2263
tp2264
Rp2265
sg71
I1639297
sg72
F0.8421862971516552
sg73
g5
sg74
g8
(g12
S'\x8e\xe38\x8e\xe38\xc6?'
p2266
tp2267
Rp2268
ssS'RICE KENNETH D'
p2269
(dp2270
g3
I905
sg4
g5
sg6
I46950
sg7
g8
(g12
S"&\xc5'v\x1c\xba\xd3?"
p2271
tp2272
Rp2273
sg18
I01
sg19
I-3504386
sg20
S'ken.rice@enron.com'
p2274
sg22
I1617011
sg23
g8
(g12
S'o\x87\x82\x86A4\xca?'
p2275
tp2276
Rp2277
sg27
g8
(g12
S'\xd9%Jx\x8bh\xdd?'
p2278
tp2279
Rp2280
sg31
g5
sg32
I864
sg33
g5
sg34
I18
sg35
I174839
sg36
F0.2222222222222222
sg37
g8
(g12
S'f.\x13\xb8\xd0|\xee?'
p2281
tp2282
Rp2283
sg41
g5
sg42
g8
(g12
S'\x1712\xa8\x19H\x91?'
p2284
tp2285
Rp2286
sg46
I1750000
sg47
I22542539
sg48
I42
sg49
g8
(g12
S'\xe9\x87\x93\xcf\x05\x1e\xcb?'
p2287
tp2288
Rp2289
sg53
g8
(g12
S'`\xdd\xb6xV5\xd8?'
p2290
tp2291
Rp2292
sg57
I4
sg58
F0.04640883977900553
sg59
I2748364
sg60
g8
(g12
S'AG\x98\xf0\x86p\xe2?'
p2293
tp2294
Rp2295
sg62
I420636
sg63
g8
(g12
S',au)M\xf8s?'
p2296
tp2297
Rp2298
sg67
g8
(g12
S'\x1er\x90\xc0\xf3T\xcb?'
p2299
tp2300
Rp2301
sg71
I505050
sg72
F0.9546961325966851
sg73
I19794175
sg74
g8
(g12
S'\x1c\xc7q\x1c\xc7q\xcc?'
p2302
tp2303
Rp2304
ssS'KAMINSKI WINCENTY J'
p2305
(dp2306
g3
I4607
sg4
g5
sg6
I83585
sg7
g8
(g12
S'\xee(k=, \xc4?'
p2307
tp2308
Rp2309
sg18
I00
sg19
g5
sg20
S'vince.kaminski@enron.com'
p2310
sg22
I323466
sg23
g8
(g12
S'\xe8G\xbd\xd1\x9f[\xd7?'
p2311
tp2312
Rp2313
sg27
g8
(g12
S'\x12\xcb\xfe\xf9s@\x95?'
p2314
tp2315
Rp2316
sg31
g5
sg32
I583
sg33
g5
sg34
I14368
sg35
I4669
sg36
F0.011901447661469933
sg37
g8
(g12
S'\x82\x85\xa9\x13P-\xbc?'
p2317
tp2318
Rp2319
sg41
g5
sg42
g8
(g12
S'\xa9\xc8H!\x0b\x86=?'
p2320
tp2321
Rp2322
sg46
I400000
sg47
I976037
sg48
I41
sg49
g8
(g12
S'7\xc6\xaaGrN\xa5?'
p2323
tp2324
Rp2325
sg53
g8
(g12
S';s\xad\xf2e\xa5\xcf?'
p2326
tp2327
Rp2328
sg57
I171
sg58
F0.008899500759713479
sg59
I126027
sg60
g8
(g12
S'X\xc9l\xab\xc0>\x99?'
p2329
tp2330
Rp2331
sg62
I275101
sg63
g8
(g12
S'\r\x96:\xacv}\x85?'
p2332
tp2333
Rp2334
sg67
g8
(g12
S'\xdc\x1d\t\x11\x07\xf7\xa4?'
p2335
tp2336
Rp2337
sg71
I1086821
sg72
F0.1265465595832429
sg73
I850010
sg74
g8
(g12
S'\xba:\xd9C\xc9_\x88?'
p2338
tp2339
Rp2340
ssS'LOCKHART EUGENE E'
p2341
(dp2342
g3
g5
sg4
g5
sg6
g5
sg7
g61
sg18
I00
sg19
g5
sg20
g5
sg22
g5
sg23
g61
sg27
g61
sg31
g5
sg32
g5
sg33
g5
sg34
g5
sg35
g5
sg36
g61
sg37
g61
sg41
g5
sg42
g61
sg46
g5
sg47
g5
sg48
g5
sg49
g61
sg53
g61
sg57
g5
sg58
g61
sg59
g5
sg60
g61
sg62
g5
sg63
g61
sg67
g61
sg71
g5
sg72
g61
sg73
g5
sg74
g61
ssS'COX DAVID'
p2343
(dp2344
g3
I102
sg4
g5
sg6
I27861
sg7
g8
(g12
S'\xc4W\xce\x8f\xc5\xfb\xc5?'
p2345
tp2346
Rp2347
sg18
I00
sg19
I-41250
sg20
S'chip.cox@enron.com'
p2348
sg22
g5
sg23
g8
(g12
S'\xa3\xad/b[\x08\xbf?'
p2349
tp2350
Rp2351
sg27
g8
(g12
S'\x90\x94\x08\xb4\xd2|\x86?'
p2352
tp2353
Rp2354
sg31
g5
sg32
I71
sg33
g5
sg34
I33
sg35
I494
sg36
F0.12121212121212122
sg37
g8
(g12
S'}\xcb4\xae\x12\x11\xe6?'
p2355
tp2356
Rp2357
sg41
g5
sg42
g8
(g12
S',\x985\xea6\xe6\x08?'
p2358
tp2359
Rp2360
sg46
I800000
sg47
I495633
sg48
I0
sg49
g8
(g12
S'5\xbc\xa1\xc3\xf2\x90\xb7?'
p2361
tp2362
Rp2363
sg53
g8
(g12
S'\xde!Y\xe8\xb4\x14\xd2?'
p2364
tp2365
Rp2366
sg57
I4
sg58
F0.0
sg59
I378082
sg60
g8
(g12
S'\xbf\x93vD7Ak?'
p2367
tp2368
Rp2369
sg62
I314288
sg63
g8
(g12
S'_\x03\x9c\x9b<\xc7\x85?'
p2370
tp2371
Rp2372
sg67
g8
(g12
S'\x00\x00\x00\x00\x00\x00\x00\x00'
p2373
tp2374
Rp2375
sg71
I1101393
sg72
F0.696078431372549
sg73
I117551
sg74
g8
(g12
S'\x08\x1f|\xf0\xc1\x07\xbf?'
p2376
tp2377
Rp2378
ssS'OVERDYKE JR JERE C'
p2379
(dp2380
g3
g5
sg4
g5
sg6
I18834
sg7
g8
(g12
S'8\x17s\xd3\xc4\x1e\xd1?'
p2381
tp2382
Rp2383
sg18
I00
sg19
g5
sg20
S'jere.overdyke@enron.com'
p2384
sg22
I135836
sg23
g8
(g12
S'K\\\xdd\xf9\xa0\xec\xb4?'
p2385
tp2386
Rp2387
sg27
g8
(g12
S'\xcb\xb8\xa8\x7f\xe8$\xc3?'
p2388
tp2389
Rp2390
sg31
g5
sg32
g5
sg33
g5
sg34
g5
sg35
I176
sg36
g61
sg37
g61
sg41
g5
sg42
g8
(g12
S'\x19\x91\x83;\x97\x9c\xf1>'
p2391
tp2392
Rp2393
sg46
g5
sg47
I7307594
sg48
g5
sg49
g61
sg53
g8
(g12
S'Ie=\x89^\xc5\xb5?'
p2394
tp2395
Rp2396
sg57
g5
sg58
g61
sg59
I2041016
sg60
g8
(g12
S'\xae5\xb5[\x9b\x9d\xc3?'
p2397
tp2398
Rp2399
sg62
I94941
sg63
g8
(g12
S'\xbb!\xe3E[\xbfc?'
p2400
tp2401
Rp2402
sg67
g61
sg71
I249787
sg72
g61
sg73
I5266578
sg74
g61
ssS'PEREIRA PAULO V. FERRAZ'
p2403
(dp2404
g3
g5
sg4
g5
sg6
I27942
sg7
g61
sg18
I00
sg19
I-101250
sg20
g5
sg22
g5
sg23
g8
(g12
S'\x12\xe9#\xad\x93\x1f\xbf?'
p2405
tp2406
Rp2407
sg27
g61
sg31
g5
sg32
g5
sg33
g5
sg34
g5
sg35
g5
sg36
g61
sg37
g61
sg41
I101250
sg42
g61
sg46
g5
sg47
g5
sg48
g5
sg49
g61
sg53
g61
sg57
g5
sg58
g61
sg59
g5
sg60
g61
sg62
g5
sg63
g8
(g12
S'\xab\x7fG\xcc\xc6\x961?'
p2408
tp2409
Rp2410
sg67
g61
sg71
I27942
sg72
g61
sg73
g5
sg74
g61
ssS'STABLER FRANK'
p2411
(dp2412
g3
g5
sg4
g5
sg6
I16514
sg7
g8
(g12
S'n\x8dy.\xf5\xf7\xc6?'
p2413
tp2414
Rp2415
sg18
I00
sg19
g5
sg20
S'frank.stabler@enron.com'
p2416
sg22
g5
sg23
g8
(g12
S'\x17.Q\xb0\x90S\xb2?'
p2417
tp2418
Rp2419
sg27
g8
(g12
S'\xc9\xa5\xb29\x8f(\x87?'
p2420
tp2421
Rp2422
sg31
g5
sg32
g5
sg33
g5
sg34
g5
sg35
I356071
sg36
g61
sg37
g61
sg41
g5
sg42
g8
(g12
S'\xbd\xd8\x80\x9d\x02\x99\xa1?'
p2423
tp2424
Rp2425
sg46
I500000
sg47
I511734
sg48
g5
sg49
g8
(g12
S'\xc4\xf2\x90\x17O\xc3\xab?'
p2426
tp2427
Rp2428
sg53
g8
(g12
S'\xa5\xbe\xc0\x9f:\x8b\xcb?'
p2429
tp2430
Rp2431
sg57
g5
sg58
g61
sg59
I511734
sg60
g61
sg62
I239502
sg63
g8
(g12
S'\xd5e6}`\xfd\x85?'
p2432
tp2433
Rp2434
sg67
g61
sg71
I1112087
sg72
g61
sg73
g5
sg74
g61
ssS'SKILLING JEFFREY K'
p2435
(dp2436
g3
I3627
sg4
g5
sg6
I29336
sg7
g8
(g12
S'K\x07y]\xe6h\xe1?'
p2437
tp2438
Rp2439
sg18
I01
sg19
g5
sg20
S'jeff.skilling@enron.com'
p2440
sg22
I1920000
sg23
g8
(g12
S'\xb7\xc7U\x1c\x98W\xc0?'
p2441
tp2442
Rp2443
sg27
g8
(g12
S'3J\x0b\r\x1a\x04\xe1?'
p2444
tp2445
Rp2446
sg31
g5
sg32
I2042
sg33
g5
sg34
I108
sg35
I22122
sg36
F0.2777777777777778
sg37
g8
(g12
S'!^\xbe\x14\xc7\xbb\xe1?'
p2447
tp2448
Rp2449
sg41
g5
sg42
g8
(g12
S"\xfb\x84\x85'\xd2}a?"
p2450
tp2451
Rp2452
sg46
I5600000
sg47
I26093672
sg48
I88
sg49
g8
(g12
S'-\xbd&\xc8\xb4P\xe6?'
p2453
tp2454
Rp2455
sg53
g8
(g12
S'\x00\x00\x00\x00\x00\x00\xf0?'
p2456
tp2457
Rp2458
sg57
I30
sg58
F0.0242624758753791
sg59
I6843672
sg60
g8
(g12
S'0\x82\xfc\xf9\xba\xee\xe1?'
p2459
tp2460
Rp2461
sg62
I1111258
sg63
g8
(g12
S'\xc9\x0cGl\x9ev\xb5?'
p2462
tp2463
Rp2464
sg67
g8
(g12
S'u.\xe2O\xfe\x93\xbc?'
p2465
tp2466
Rp2467
sg71
I8682716
sg72
F0.5629997242900469
sg73
I19250000
sg74
g8
(g12
S'r\x1c\xc7q\x1c\xc7\xd1?'
p2468
tp2469
Rp2470
ssS'BLAKE JR. NORMAN P'
p2471
(dp2472
g3
g5
sg4
g5
sg6
I1279
sg7
g61
sg18
I00
sg19
I-113784
sg20
g5
sg22
g5
sg23
g8
(g12
S'\x94\x9bx\n\x7fCt?'
p2473
tp2474
Rp2475
sg27
g61
sg31
g5
sg32
g5
sg33
g5
sg34
g5
sg35
g5
sg36
g61
sg37
g61
sg41
I113784
sg42
g61
sg46
g5
sg47
g5
sg48
g5
sg49
g61
sg53
g61
sg57
g5
sg58
g61
sg59
g5
sg60
g61
sg62
g5
sg63
g8
(g12
S'\xf6:\x10%L\xe7\xe6>'
p2476
tp2477
Rp2478
sg67
g61
sg71
I1279
sg72
g61
sg73
g5
sg74
g61
ssS'SHERRICK JEFFREY B'
p2479
(dp2480
g3
I613
sg4
g5
sg6
g5
sg7
g8
(g12
S'|9\x05\xaar0\xc6?'
p2481
tp2482
Rp2483
sg18
I00
sg19
g5
sg20
S'jeffrey.sherrick@enron.com'
p2484
sg22
g5
sg23
g61
sg27
g8
(g12
S'\x7f\x92\xc7\x0f\xf1\x8b\xa3?'
p2485
tp2486
Rp2487
sg31
g5
sg32
I583
sg33
g5
sg34
I25
sg35
g5
sg36
F0.72
sg37
g8
(g12
S'\xe6\x1d\xd3B\x82^\xee?'
p2488
tp2489
Rp2490
sg41
g5
sg42
g61
sg46
g5
sg47
I1832468
sg48
I39
sg49
g61
sg53
g61
sg57
I18
sg58
F0.0636215334420881
sg59
I405999
sg60
g8
(g12
S'\xb7]\xa8\x87T7\xa5?'
p2491
tp2492
Rp2493
sg62
g5
sg63
g61
sg67
g8
(g12
S'p\x16\xc9\xeb\x08\xbc\xd2?'
p2494
tp2495
Rp2496
sg71
g5
sg72
F0.9510603588907015
sg73
I1426469
sg74
g8
(g12
S'\n\xd7\xa3p=\n\xe7?'
p2497
tp2498
Rp2499
ssS'PRENTICE JAMES'
p2500
(dp2501
g3
g5
sg4
I564348
sg6
g5
sg7
g8
(g12
S'!0\x90z_\xbc\xc4?'
p2502
tp2503
Rp2504
sg18
I00
sg19
g5
sg20
S'james.prentice@enron.com'
p2505
sg22
g5
sg23
g61
sg27
g8
(g12
S'\x92\xd4\x1f\x90\x1b\xbb\x97?'
p2506
tp2507
Rp2508
sg31
g5
sg32
g5
sg33
g5
sg34
g5
sg35
g5
sg36
g61
sg37
g61
sg41
g5
sg42
g61
sg46
g5
sg47
I1095040
sg48
g5
sg49
g61
sg53
g61
sg57
g5
sg58
g61
sg59
I208809
sg60
g8
(g12
S'\x1cp\xe7\xf66S\x9a?'
p2509
tp2510
Rp2511
sg62
g5
sg63
g8
(g12
S'%o"\xa6\xb6Pv?'
p2512
tp2513
Rp2514
sg67
g61
sg71
I564348
sg72
g61
sg73
I886231
sg74
g61
ssS'GRAY RODNEY'
p2515
(dp2516
g3
g5
sg4
I93585
sg6
g5
sg7
g61
sg18
I00
sg19
g5
sg20
g5
sg22
I365625
sg23
g61
sg27
g61
sg31
g5
sg32
g5
sg33
g5
sg34
g5
sg35
I680833
sg36
g61
sg37
g61
sg41
g5
sg42
g8
(g12
S'\x11\xbb\xb7\x05\xf6\xd2\xb0?'
p2517
tp2518
Rp2519
sg46
g5
sg47
g5
sg48
g5
sg49
g61
sg53
g8
(g12
S'M\x89\x0b\xd8C\xa2v?'
p2520
tp2521
Rp2522
sg57
g5
sg58
g61
sg59
g5
sg60
g61
sg62
I6615
sg63
g8
(g12
S'd\x1a\xbb\xfbe\xac\x86?'
p2523
tp2524
Rp2525
sg67
g61
sg71
I1146658
sg72
g61
sg73
g5
sg74
g61
ssS'PICKERING MARK R'
p2526
(dp2527
g3
I898
sg4
g5
sg6
I31653
sg7
g61
sg18
I00
sg19
g5
sg20
S'mark.pickering@enron.com'
p2528
sg22
g5
sg23
g8
(g12
S'\xa4\x03\xc2,\xb2\xa3\xc1?'
p2529
tp2530
Rp2531
sg27
g8
(g12
S'n&\x07\xdd\xc1KX?'
p2532
tp2533
Rp2534
sg31
g5
sg32
I728
sg33
I400000
sg34
I67
sg35
g5
sg36
F0.0
sg37
g8
(g12
S'\x113Q\xbfo\xcc\xe9?'
p2535
tp2536
Rp2537
sg41
g5
sg42
g61
sg46
I300000
sg47
I28798
sg48
I7
sg49
g8
(g12
S'V3\x89\xef*\xb3\x9d?'
p2538
tp2539
Rp2540
sg53
g8
(g12
S'\xbbCQ\xca_\xdb\xe2?'
p2541
tp2542
Rp2543
sg57
I0
sg58
F0.0077951002227171495
sg59
g5
sg60
g8
(g12
S'\x0b\xc7\xeb+jWH?'
p2544
tp2545
Rp2546
sg62
I655037
sg63
g8
(g12
S'\xd7\x9a\x02\xb8\x99k\x8b?'
p2547
tp2548
Rp2549
sg67
g8
(g12
S'\xba\xb2=\xfe\xfe\\\xa2?'
p2550
tp2551
Rp2552
sg71
I1386690
sg72
F0.8106904231625836
sg73
I28798
sg74
g8
(g12
S'\x00\x00\x00\x00\x00\x00\x00\x00'
p2553
tp2554
Rp2555
ssS'NOLES JAMES L'
p2556
(dp2557
g3
g5
sg4
I774401
sg6
g5
sg7
g8
(g12
S'-\xf3d\xa7~\x9c\xc6?'
p2558
tp2559
Rp2560
sg18
I00
sg19
g5
sg20
g5
sg22
g5
sg23
g61
sg27
g8
(g12
S'&V\xed\xf3\xfb2\x81?'
p2561
tp2562
Rp2563
sg31
I-94556
sg32
g5
sg33
g5
sg34
g5
sg35
g5
sg36
g61
sg37
g61
sg41
g5
sg42
g61
sg46
g5
sg47
I368705
sg48
g5
sg49
g61
sg53
g61
sg57
g5
sg58
g61
sg59
I463261
sg60
g61
sg62
g5
sg63
g8
(g12
S']y\xf8\xfc\x91\x9f~?'
p2564
tp2565
Rp2566
sg67
g61
sg71
I774401
sg72
g61
sg73
g5
sg74
g61
ssS'KEAN STEVEN J'
p2567
(dp2568
g3
I12754
sg4
g5
sg6
I41953
sg7
g8
(g12
S'6m\xb2\x05\x1c\xd3\xd8?'
p2569
tp2570
Rp2571
sg18
I00
sg19
g5
sg20
S'steven.kean@enron.com'
p2572
sg22
I300000
sg23
g8
(g12
S'qw1\xc7\x05h\xc7?'
p2573
tp2574
Rp2575
sg27
g8
(g12
S'0\x14@\x0e\xa4#\xc0?'
p2576
tp2577
Rp2578
sg31
g5
sg32
I3639
sg33
g5
sg34
I6759
sg35
I1231
sg36
F0.05725699067909454
sg37
g8
(g12
S'\x12\x9e\x08\xf3Qb\xd1?'
p2579
tp2580
Rp2581
sg41
g5
sg42
g8
(g12
S'0\xee\xb5OJ\x19\x1f?'
p2582
tp2583
Rp2584
sg46
I1000000
sg47
I6153642
sg48
I140
sg49
g8
(g12
S'\xc2\xe8\x87\x93\xcf\x05\xbe?'
p2585
tp2586
Rp2587
sg53
g8
(g12
S'\x82\xb07L\xf1D\xd7?'
p2588
tp2589
Rp2590
sg57
I387
sg58
F0.010976948408342482
sg59
I4131594
sg60
g8
(g12
S'n\xba\x0b\x8f@\x18\xae?'
p2591
tp2592
Rp2593
sg62
I404338
sg63
g8
(g12
S'\xbd\x8e\xb2\xb5/G\x91?'
p2594
tp2595
Rp2596
sg67
g8
(g12
S'\x10\x01\x8f\x12\xe0\xdb\xa9?'
p2597
tp2598
Rp2599
sg71
I1747522
sg72
F0.2853222518425592
sg73
I2022048
sg74
g8
(g12
S'\xc4@\xde\xcc\xc9P\xad?'
p2600
tp2601
Rp2602
ssS'FOWLER PEGGY'
p2603
(dp2604
g3
I517
sg4
g5
sg6
g5
sg7
g8
(g12
S'\xce\xd0,\xd6YS\xc7?'
p2605
tp2606
Rp2607
sg18
I00
sg19
g5
sg20
S'kulvinder.fowler@enron.com'
p2608
sg22
g5
sg23
g61
sg27
g8
(g12
S'\xb0\xa2tLY\x17\xa4?'
p2609
tp2610
Rp2611
sg31
g5
sg32
I10
sg33
g5
sg34
I36
sg35
g5
sg36
F0.0
sg37
g8
(g12
S'\xe0a\x9d)0\x19P?'
p2612
tp2613
Rp2614
sg41
g5
sg42
g61
sg46
g5
sg47
I1884748
sg48
I0
sg49
g61
sg53
g61
sg57
I0
sg58
F0.0
sg59
I560170
sg60
g8
(g12
S'\x0e\xa4\x110{\xb2\xa3?'
p2615
tp2616
Rp2617
sg62
g5
sg63
g61
sg67
g8
(g12
S'\x00\x00\x00\x00\x00\x00\x00\x00'
p2618
tp2619
Rp2620
sg71
g5
sg72
F0.019342359767891684
sg73
I1324578
sg74
g8
(g12
S'\x00\x00\x00\x00\x00\x00\x00\x00'
p2621
tp2622
Rp2623
ssS'WASAFF GEORGE'
p2624
(dp2625
g3
I400
sg4
I831299
sg6
g5
sg7
g8
(g12
S'\x19\x07\x11\x0c\xcd\x0e\xc6?'
p2626
tp2627
Rp2628
sg18
I00
sg19
I-583325
sg20
S'george.wasaff@enron.com'
p2629
sg22
I200000
sg23
g61
sg27
g8
(g12
S"\xb5\xd0'\xa7#\xe1\xa5?"
p2630
tp2631
Rp2632
sg31
g5
sg32
I337
sg33
g5
sg34
I30
sg35
I1425
sg36
F0.23333333333333334
sg37
g8
(g12
S'\xa2\tZ\xe8\x96\xd5\xea?'
p2633
tp2634
Rp2635
sg41
g5
sg42
g8
(g12
S'z\t\xcea\xff\x00"?'
p2636
tp2637
Rp2638
sg46
I325000
sg47
I2056427
sg48
I22
sg49
g8
(g12
S'\xce$\xbe\xab\xccv\xa0?'
p2639
tp2640
Rp2641
sg53
g8
(g12
S'\xa2\xa4\x1e \xcd\xe7\xcd?'
p2642
tp2643
Rp2644
sg57
I7
sg58
F0.055
sg59
I388167
sg60
g8
(g12
S'\xb2\x03\x1b3\x15\xd2\xa8?'
p2645
tp2646
Rp2647
sg62
I259996
sg63
g8
(g12
S'\xf4\x0f\xc9U\x0ct\x84?'
p2648
tp2649
Rp2650
sg67
g8
(g12
S'\x0c\x9f\xcaR\x1c2\xd0?'
p2651
tp2652
Rp2653
sg71
I1034395
sg72
F0.8425
sg73
I1668260
sg74
g8
(g12
S'\xde\xdd\xdd\xdd\xdd\xdd\xcd?'
p2654
tp2655
Rp2656
ssS'WHITE JR THOMAS E'
p2657
(dp2658
g3
g5
sg4
g5
sg6
I81353
sg7
g8
(g12
S'Z>v\xe0\x8dP\xee?'
p2659
tp2660
Rp2661
sg18
I00
sg19
g5
sg20
S'thomas.white@enron.com'
p2662
sg22
g5
sg23
g8
(g12
S'\xeb\xca*?\xaa\xbb\xd6?'
p2663
tp2664
Rp2665
sg27
g8
(g12
S'\x0b\x0f\xf7\xda\x83\xc6\xd3?'
p2666
tp2667
Rp2668
sg31
g5
sg32
g5
sg33
g5
sg34
g5
sg35
I1085463
sg36
g61
sg37
g61
sg41
g5
sg42
g8
(g12
S'\x9e\xdeT,\xaa\xd2\xba?'
p2669
tp2670
Rp2671
sg46
I450000
sg47
I15144123
sg48
g5
sg49
g8
(g12
S'~\xdc\x9d\xaf\xe0\x88\xa8?'
p2672
tp2673
Rp2674
sg53
g8
(g12
S'~\xd5\xd5\xc5\xb7D\xd2?'
p2675
tp2676
Rp2677
sg57
g5
sg58
g61
sg59
I13847074
sg60
g8
(g12
S'\xb1W\x8e\xf0kI\xa3?'
p2678
tp2679
Rp2680
sg62
I317543
sg63
g8
(g12
S'\xbf\xda\x88\x14" \x93?'
p2681
tp2682
Rp2683
sg67
g61
sg71
I1934359
sg72
g61
sg73
I1297049
sg74
g61
ssS'CHRISTODOULOU DIOMEDES'
p2684
(dp2685
g3
g5
sg4
g5
sg6
g5
sg7
g8
(g12
S'\xa9\xc5\xfe\xfbJ4\xca?'
p2686
tp2687
Rp2688
sg18
I00
sg19
g5
sg20
S'diomedes.christodoulou@enron.com'
p2689
sg22
g5
sg23
g61
sg27
g8
(g12
S'\x8b\xeb4\xddF\xe2\xbf?'
p2690
tp2691
Rp2692
sg31
g5
sg32
g5
sg33
g5
sg34
g5
sg35
g5
sg36
g61
sg37
g61
sg41
g5
sg42
g61
sg46
g5
sg47
I6077885
sg48
g5
sg49
g61
sg53
g61
sg57
g5
sg58
g61
sg59
I950730
sg60
g8
(g12
S'UQ\xf3\x07\x96\x18\xc3?'
p2693
tp2694
Rp2695
sg62
g5
sg63
g61
sg67
g61
sg71
g5
sg72
g61
sg73
I5127155
sg74
g61
ssS'ALLEN PHILLIP K'
p2696
(dp2697
g3
I2902
sg4
I2869717
sg6
I13868
sg7
g8
(g12
S'\xee(k=, \xc4?'
p2698
tp2699
Rp2700
sg18
I00
sg19
I-3081055
sg20
S'phillip.allen@enron.com'
p2701
sg22
I304805
sg23
g8
(g12
S'\xd8\xdbM\xea\x18\xba\xae?'
p2702
tp2703
Rp2704
sg27
g8
(g12
S'k\xe7AU{y\xa2?'
p2705
tp2706
Rp2707
sg31
I-126027
sg32
I1407
sg33
g5
sg34
I2195
sg35
I152
sg36
F0.029612756264236904
sg37
g8
(g12
S'\xc1\xf0\xc3F\x80`\xde?'
p2708
tp2709
Rp2710
sg41
g5
sg42
g8
(g12
S'y\x1d;\xadn]\xee>'
p2711
tp2712
Rp2713
sg46
I4175000
sg47
I1729541
sg48
I47
sg49
g8
(g12
S'\x80\xbd\xfd\x1e\xa0\x90\xe0?'
p2714
tp2715
Rp2716
sg53
g8
(g12
S'\x04\x93\x97\x05\x987\xc7?'
p2717
tp2718
Rp2719
sg57
I65
sg58
F0.016195727084769126
sg59
I126027
sg60
g8
(g12
S'\xf3`Bo\xf3\xbb\xa9?'
p2720
tp2721
Rp2722
sg62
I201955
sg63
g8
(g12
S'}\xa9\x121\x9f+\xa6?'
p2723
tp2724
Rp2725
sg67
g8
(g12
S'\xf0"\xaeo\x95\x13\xb3?'
p2726
tp2727
Rp2728
sg71
I4484442
sg72
F0.4848380427291523
sg73
I1729541
sg74
g8
(g12
S'\xa9\x19\xccn\xceR\x9e?'
p2729
tp2730
Rp2731
ssS'SHARP VICTORIA T'
p2732
(dp2733
g3
I3136
sg4
I187469
sg6
I116337
sg7
g8
(g12
S'C\x87\xa1Wf\xc4\xc4?'
p2734
tp2735
Rp2736
sg18
I00
sg19
g5
sg20
S'vicki.sharp@enron.com'
p2737
sg22
I422158
sg23
g8
(g12
S'\xc4\\3\x8ckC\xe0?'
p2738
tp2739
Rp2740
sg27
g8
(g12
S'\xae\xcfg\x13\xdbl\x86?'
p2741
tp2742
Rp2743
sg31
g5
sg32
I2477
sg33
g5
sg34
I136
sg35
I2401
sg36
F0.04411764705882353
sg37
g8
(g12
S'\xc4\xf4\xc8\x97\xcc\x1e\xe9?'
p2744
tp2745
Rp2746
sg41
g5
sg42
g8
(g12
S'w\x95\xb4\x821Z.?'
p2747
tp2748
Rp2749
sg46
I600000
sg47
I494136
sg48
I24
sg49
g8
(g12
S'\xa9\x8f\xbb\xf3\x15\x1c\xb1?'
p2750
tp2751
Rp2752
sg53
g8
(g12
S'H=\x89\x08:\x8a\xcc?'
p2753
tp2754
Rp2755
sg57
I6
sg58
F0.007653061224489796
sg59
I213063
sg60
g8
(g12
S'\xaefE\xe5\x83\x90\x80?'
p2756
tp2757
Rp2758
sg62
I248146
sg63
g8
(g12
S'\xcc\x93\xee\xd9\x99,\x8f?'
p2759
tp2760
Rp2761
sg67
g8
(g12
S'\\9\x04&V\x07\xa2?'
p2762
tp2763
Rp2764
sg71
I1576511
sg72
F0.7898596938775511
sg73
I281073
sg74
g8
(g12
S'\x97\x96\x96\x96\x96\x96\xa6?'
p2765
tp2766
Rp2767
ssS'JAEDICKE ROBERT'
p2768
(dp2769
g3
g5
sg4
g5
sg6
g5
sg7
g8
(g12
S'\xdc\xe1\n\x9f\x92\x85\xc3?'
p2770
tp2771
Rp2772
sg18
I00
sg19
I-25000
sg20
g5
sg22
g5
sg23
g61
sg27
g8
(g12
S'\xa3\x08\xb0:o\xd3\x83?'
p2773
tp2774
Rp2775
sg31
I-44093
sg32
g5
sg33
g5
sg34
g5
sg35
g5
sg36
g61
sg37
g61
sg41
I108750
sg42
g61
sg46
g5
sg47
I431750
sg48
g5
sg49
g61
sg53
g61
sg57
g5
sg58
g61
sg59
I44093
sg60
g8
(g12
S'g\xd2T\xce\xa4\x8c\x89?'
p2776
tp2777
Rp2778
sg62
g5
sg63
g8
(g12
S'\xe0=xD\xfcsJ?'
p2779
tp2780
Rp2781
sg67
g61
sg71
I83750
sg72
g61
sg73
I431750
sg74
g61
ssS'WINOKUR JR. HERBERT S'
p2782
(dp2783
g3
g5
sg4
g5
sg6
I1413
sg7
g61
sg18
I00
sg19
I-25000
sg20
g5
sg22
g5
sg23
g8
(g12
S'HU\x80U\x1b\xaav?'
p2784
tp2785
Rp2786
sg27
g61
sg31
g5
sg32
g5
sg33
g5
sg34
g5
sg35
g5
sg36
g61
sg37
g61
sg41
I108579
sg42
g61
sg46
g5
sg47
g5
sg48
g5
sg49
g61
sg53
g61
sg57
g5
sg58
g61
sg59
g5
sg60
g61
sg62
g5
sg63
g8
(g12
S'\xebR\xaa:\x97\xd8J?'
p2787
tp2788
Rp2789
sg67
g61
sg71
I84992
sg72
g61
sg73
g5
sg74
g61
ssS'BROWN MICHAEL'
p2790
(dp2791
g3
I1486
sg4
g5
sg6
I49288
sg7
g61
sg18
I00
sg19
g5
sg20
S'michael.brown@enron.com'
p2792
sg22
g5
sg23
g8
(g12
S'\x95\xc1c%^\x83\xcb?'
p2793
tp2794
Rp2795
sg27
g61
sg31
g5
sg32
I761
sg33
g5
sg34
I41
sg35
g5
sg36
F0.024390243902439025
sg37
g8
(g12
S'\xce\x7f#\xe4\x9a\x13\xe0?'
p2796
tp2797
Rp2798
sg41
g5
sg42
g61
sg46
g5
sg47
g5
sg48
I13
sg49
g61
sg53
g61
sg57
I1
sg58
F0.008748317631224764
sg59
g5
sg60
g61
sg62
g5
sg63
g8
(g12
S'e>8Q\xf1\x18??'
p2799
tp2800
Rp2801
sg67
g8
(g12
S'M\x8b\xd6~\xda\x9b\xa4?'
p2802
tp2803
Rp2804
sg71
I49288
sg72
F0.5121130551816958
sg73
g5
sg74
g8
(g12
S'\xfa\x18\x9c\x8f\xc1\xf9\x98?'
p2805
tp2806
Rp2807
ssS'BADUM JAMES P'
p2808
(dp2809
g3
g5
sg4
I178980
sg6
I3486
sg7
g61
sg18
I00
sg19
g5
sg20
g5
sg22
g5
sg23
g8
(g12
S' \xc6i\x93\x1c\xe7\x8d?'
p2810
tp2811
Rp2812
sg27
g8
(g12
S'o0\x8eRv(y?'
p2813
tp2814
Rp2815
sg31
g5
sg32
g5
sg33
g5
sg34
g5
sg35
g5
sg36
g61
sg37
g61
sg41
g5
sg42
g61
sg46
g5
sg47
I257817
sg48
g5
sg49
g61
sg53
g61
sg57
g5
sg58
g61
sg59
g5
sg60
g8
(g12
S'\x9bA\x1d\xd9\x02[~?'
p2816
tp2817
Rp2818
sg62
g5
sg63
g8
(g12
S'\xa1\x92\xb6c\x1f\xd8\\?'
p2819
tp2820
Rp2821
sg67
g61
sg71
I182466
sg72
g61
sg73
I257817
sg74
g61
ssS'HUGHES JAMES A'
p2822
(dp2823
g3
I719
sg4
g5
sg6
g5
sg7
g8
(g12
S'8\x97\xea\r\x1f\xe0\xc5?'
p2824
tp2825
Rp2826
sg18
I00
sg19
g5
sg20
S'james.hughes@enron.com'
p2827
sg22
g5
sg23
g61
sg27
g8
(g12
S'D\x0e;&\xa87\x98?'
p2828
tp2829
Rp2830
sg31
g5
sg32
I589
sg33
g5
sg34
I34
sg35
g5
sg36
F0.14705882352941177
sg37
g8
(g12
S'y\x05\x9cFP\x13\xea?'
p2831
tp2832
Rp2833
sg41
g5
sg42
g61
sg46
g5
sg47
I1118394
sg48
I35
sg49
g61
sg53
g61
sg57
I5
sg58
F0.048678720445062586
sg59
I363428
sg60
g8
(g12
S'\x85\xc6}\xbbPi\x96?'
p2834
tp2835
Rp2836
sg62
g5
sg63
g61
sg67
g8
(g12
S'\xba>\xa8?-\xab\xcc?'
p2837
tp2838
Rp2839
sg71
g5
sg72
F0.8191933240611962
sg73
I754966
sg74
g8
(g12
S'\xd3\xd2\xd2\xd2\xd2\xd2\xc2?'
p2840
tp2841
Rp2842
ssS'REYNOLDS LAWRENCE'
p2843
(dp2844
g3
g5
sg4
I51365
sg6
I8409
sg7
g8
(g12
S'-\xffF\xb5\x8c\xae\xc4?'
p2845
tp2846
Rp2847
sg18
I00
sg19
I-200000
sg20
g5
sg22
I156250
sg23
g8
(g12
S'C8\xd2\xf4H\x80\xa2?'
p2848
tp2849
Rp2850
sg27
g8
(g12
S'\xf6\xd8\xd29\xba7\xb6?'
p2851
tp2852
Rp2853
sg31
I-140264
sg32
g5
sg33
g5
sg34
g5
sg35
I202052
sg36
g61
sg37
g61
sg41
g5
sg42
g8
(g12
S'\x83\xc1/\xab\xb3\xf8\x93?'
p2854
tp2855
Rp2856
sg46
I100000
sg47
I4221891
sg48
g5
sg49
g8
(g12
S'\x08\t\x84\x7f\xbd\xfdn?'
p2857
tp2858
Rp2859
sg53
g8
(g12
S'h\xbbt\x81d\x7f\xb1?'
p2860
tp2861
Rp2862
sg57
g5
sg58
g61
sg59
I201483
sg60
g8
(g12
S'N\x08Jb\xf7\xfc\xbe?'
p2863
tp2864
Rp2865
sg62
I76399
sg63
g8
(g12
S's\x9c\x98\x9cb1o?'
p2866
tp2867
Rp2868
sg67
g61
sg71
I394475
sg72
g61
sg73
I4160672
sg74
g61
ssS'DIMICHELE RICHARD G'
p2869
(dp2870
g3
g5
sg4
g5
sg6
I35812
sg7
g8
(g12
S'\xee(k=, \xc4?'
p2871
tp2872
Rp2873
sg18
I00
sg19
g5
sg20
S'richard.dimichele@enron.com'
p2874
sg22
I694862
sg23
g8
(g12
S'\xd5\xec\xb1\x0c\xd1\xf7\xc3?'
p2875
tp2876
Rp2877
sg27
g8
(g12
S'\xaaH|MV\xc6\xc5?'
p2878
tp2879
Rp2880
sg31
g5
sg32
g5
sg33
g5
sg34
g5
sg35
I374689
sg36
g61
sg37
g61
sg41
g5
sg42
g8
(g12
S'r\xd8<\x04\x91\x84\xa2?'
p2881
tp2882
Rp2883
sg46
I1000000
sg47
I8317782
sg48
g5
sg49
g8
(g12
S'\xc2\xe8\x87\x93\xcf\x05\xbe?'
p2884
tp2885
Rp2886
sg53
g8
(g12
S'!\x8a\xb7H*:\xce?'
p2887
tp2888
Rp2889
sg57
g5
sg58
g61
sg59
I126027
sg60
g8
(g12
S'\xe2O\x86Mv\x84\xce?'
p2890
tp2891
Rp2892
sg62
I262788
sg63
g8
(g12
S'\xca\x96\x06\x924j\x97?'
p2893
tp2894
Rp2895
sg67
g61
sg71
I2368151
sg72
g61
sg73
I8191755
sg74
g61
ssS'BHATNAGAR SANJAY'
p2896
(dp2897
g3
I523
sg4
g5
sg6
g5
sg7
g8
(g12
S'\x00\x00\x00\x00\x00\x00\x00\x00'
p2898
tp2899
Rp2900
sg18
I00
sg19
g5
sg20
S'sanjay.bhatnagar@enron.com'
p2901
sg22
g5
sg23
g61
sg27
g61
sg31
I15456290
sg32
I463
sg33
g5
sg34
I29
sg35
I137864
sg36
F0.034482758620689655
sg37
g8
(g12
S'If\xab8*:\xec?'
p2902
tp2903
Rp2904
sg41
I137864
sg42
g8
(g12
S'5\x07\xf1\x8b\xf5@\x8b?'
p2905
tp2906
Rp2907
sg46
g5
sS'total_stock_value'
p2908
S'NaN'
p2909
sg48
I0
sg49
g61
sg53
g61
sg57
I1
sg58
F0.0
sg59
I-2604490
sg60
g8
(g12
S'\x97\xafE\x02\x85c\xb3?'
p2910
tp2911
Rp2912
sg62
g5
sg63
g8
(g12
S',\xb7\xac\xce\x94\x1a\xc3?'
p2913
tp2914
Rp2915
sg67
g8
(g12
S'\x00\x00\x00\x00\x00\x00\x00\x00'
p2916
tp2917
Rp2918
sg71
I15456290
sg72
F0.8852772466539197
sg73
I2604490
sg74
g8
(g12
S'\x96{\x1aa\xb9\xa7\xa1?'
p2919
tp2920
Rp2921
ssS'CARTER REBECCA C'
p2922
(dp2923
g3
I312
sg4
g5
sg6
g5
sg7
g8
(g12
S'\xc1*lQ7v\xc5?'
p2924
tp2925
Rp2926
sg18
I00
sg19
I-159792
sg20
S'rebecca.carter@enron.com'
p2927
sg22
I75000
sg23
g61
sg27
g61
sg31
I-307301
sg32
I196
sg33
g5
sg34
I15
sg35
I540
sg36
F0.4666666666666667
sg37
g8
(g12
S'\xaa\xf4\x0bVN\xdb\xe3?'
p2928
tp2929
Rp2930
sg41
g5
sg42
g8
(g12
S'nZ\xe7z-:\x0b?'
p2931
tp2932
Rp2933
sg46
I300000
sg47
g5
sg48
I29
sg49
g8
(g12
S'V3\x89\xef*\xb3\x9d?'
p2934
tp2935
Rp2936
sg53
g8
(g12
S'\x1b\xee\x8c\xe2H\x1d\xce?'
p2937
tp2938
Rp2939
sg57
I7
sg58
F0.09294871794871795
sg59
I307301
sg60
g61
sg62
I261809
sg63
g8
(g12
S'\xfc\xc4n\xf4\xec\xe1r?'
p2940
tp2941
Rp2942
sg67
g8
(g12
S'P\x88\xb0\x90\xd4^\xdb?'
p2943
tp2944
Rp2945
sg71
I477557
sg72
F0.6282051282051282
sg73
g5
sg74
g8
(g12
S'\xde\xdd\xdd\xdd\xdd\xdd\xdd?'
p2946
tp2947
Rp2948
ssS'BUCHANAN HAROLD G'
p2949
(dp2950
g3
I1088
sg4
g5
sg6
I600
sg7
g8
(g12
S'x \xee\xb0\x12\x97\xc4?'
p2951
tp2952
Rp2953
sg18
I00
sg19
g5
sg20
S'john.buchanan@enron.com'
p2954
sg22
I304805
sg23
g8
(g12
S'\x92\x94?\xe3S2`?'
p2955
tp2956
Rp2957
sg27
g8
(g12
S'\x96\xa9\xaaL\x9b\r\x96?'
p2958
tp2959
Rp2960
sg31
g5
sg32
I23
sg33
g5
sg34
I125
sg35
I1215
sg36
F0.0
sg37
g8
(g12
S'H\xd1\xd1\xa0\xfd\x07g?'
p2961
tp2962
Rp2963
sg41
g5
sg42
g8
(g12
S'\xcb\xed\xe4\xfe\xa4\xb1\x1e?'
p2964
tp2965
Rp2966
sg46
I500000
sg47
I1014505
sg48
I0
sg49
g8
(g12
S'\xc4\xf2\x90\x17O\xc3\xab?'
p2967
tp2968
Rp2969
sg53
g8
(g12
S'\xb6\xb6\x96\xd3k\x86\xcc?'
p2970
tp2971
Rp2972
sg57
I0
sg58
F0.0
sg59
I189041
sg60
g8
(g12
S'\xa2\x1b$\xd4f\x83\x98?'
p2973
tp2974
Rp2975
sg62
I248017
sg63
g8
(g12
S'0\xb1&\xd5\x86\xda\x84?'
p2976
tp2977
Rp2978
sg67
g8
(g12
S'\x00\x00\x00\x00\x00\x00\x00\x00'
p2979
tp2980
Rp2981
sg71
I1054637
sg72
F0.021139705882352942
sg73
I825464
sg74
g8
(g12
S'\x00\x00\x00\x00\x00\x00\x00\x00'
p2982
tp2983
Rp2984
ssS'YEAP SOON'
p2985
(dp2986
g3
g5
sg4
g5
sg6
I55097
sg7
g61
sg18
I00
sg19
g5
sg20
g5
sg22
g5
sg23
g8
(g12
S'\xdc\x8c`\xbe\xfc\xc3\xce?'
p2987
tp2988
Rp2989
sg27
g8
(g12
S';XP!\x99\xbcs?'
p2990
tp2991
Rp2992
sg31
g5
sg32
g5
sg33
g5
sg34
g5
sg35
g5
sg36
g61
sg37
g61
sg41
g5
sg42
g61
sg46
g5
sg47
I192758
sg48
g5
sg49
g61
sg53
g61
sg57
g5
sg58
g61
sg59
g5
sg60
g8
(g12
S'\xe2\x990\xc3\xb8\x98v?'
p2993
tp2994
Rp2995
sg62
g5
sg63
g8
(g12
S'D|\x8a\x0e\x04cA?'
p2996
tp2997
Rp2998
sg67
g61
sg71
I55097
sg72
g61
sg73
I192758
sg74
g61
ssS'MURRAY JULIA H'
p2999
(dp3000
g3
I2192
sg4
g5
sg6
I57580
sg7
g8
(g12
S'\x1a/\x1d\x04\x0f\xa6\xc4?'
p3001
tp3002
Rp3003
sg18
I00
sg19
g5
sg20
S'julia.murray@enron.com'
p3004
sg22
I125000
sg23
g8
(g12
S':\x14\xc7\xef\xf0\x13\xd0?'
p3005
tp3006
Rp3007
sg27
g8
(g12
S'l\x02_\xbf\xf0\xba\x8a?'
p3008
tp3009
Rp3010
sg31
g5
sg32
I395
sg33
g5
sg34
I45
sg35
I330
sg36
F0.044444444444444446
sg37
g8
(g12
S'\x17*\x95S\x9f\x13\xc5?'
p3011
tp3012
Rp3013
sg41
g5
sg42
g8
(g12
S'\x1d\x10y\xf1y\x99\x00?'
p3014
tp3015
Rp3016
sg46
I400000
sg47
I597461
sg48
I11
sg49
g8
(g12
S'7\xc6\xaaGrN\xa5?'
p3017
tp3018
Rp3019
sg53
g8
(g12
S'+\xc8\x8ca\xcc]\xca?'
p3020
tp3021
Rp3022
sg57
I2
sg58
F0.005018248175182482
sg59
I196983
sg60
g8
(g12
S'\xe8\xe5\xd9|D\xaf\x87?'
p3023
tp3024
Rp3025
sg62
I229284
sg63
g8
(g12
S'\xa3a\x8bV\x1e\x0f\x80?'
p3026
tp3027
Rp3028
sg67
g8
(g12
S'\x19\x94\xd5\\\xb7\xa4\x97?'
p3029
tp3030
Rp3031
sg71
I812194
sg72
F0.1802007299270073
sg73
I400478
sg74
g8
(g12
S'\x17l\xc1\x16l\xc1\xa6?'
p3032
tp3033
Rp3034
ssS'GARLAND C KEVIN'
p3035
(dp3036
g3
I209
sg4
g5
sg6
I48405
sg7
g8
(g12
S'\xc2\x83R\xfe\xc9\x1c\xc5?'
p3037
tp3038
Rp3039
sg18
I00
sg19
g5
sg20
S'kevin.garland@enron.com'
p3040
sg22
I375304
sg23
g8
(g12
S'*\xc3\xbe\x14\xce\x04\xcb?'
p3041
tp3042
Rp3043
sg27
g8
(g12
S'\x90\xd1z\x81l\x96\x93?'
p3044
tp3045
Rp3046
sg31
g5
sg32
I178
sg33
g5
sg34
I44
sg35
I60814
sg36
F0.6136363636363636
sg37
g8
(g12
S'A\xe4\xa3\xe0\x10"\xeb?'
p3047
tp3048
Rp3049
sg41
g5
sg42
g8
(g12
S'W\xeak\x8e.\x0bx?'
p3050
tp3051
Rp3052
sg46
I850000
sg47
I896153
sg48
I10
sg49
g8
(g12
S'YG\x9b\xf7).\xb9?'
p3053
tp3054
Rp3055
sg53
g8
(g12
S'\x98\xe0\xe3\xc7S\xac\xca?'
p3056
tp3057
Rp3058
sg57
I27
sg58
F0.04784688995215311
sg59
I259907
sg60
g8
(g12
S'\xe5\x89\xb0\xe5*\xdf\x92?'
p3059
tp3060
Rp3061
sg62
I231946
sg63
g8
(g12
S'\x90\xf6j\xfd\xc2\xf9\x8e?'
p3062
tp3063
Rp3064
sg67
g8
(g12
S'\xb2\xa0V|\xc3-\xcc?'
p3065
tp3066
Rp3067
sg71
I1566469
sg72
F0.8516746411483254
sg73
I636246
sg74
g8
(g12
S'\xa3\x8b.\xba\xe8\xa2\xe3?'
p3068
tp3069
Rp3070
ssS'DODSON KEITH'
p3071
(dp3072
g3
I176
sg4
g5
sg6
I28164
sg7
g61
sg18
I00
sg19
g5
sg20
S'keith.dodson@enron.com'
p3073
sg22
g5
sg23
g8
(g12
S'\xed\x9e\x16q7_\xbf?'
p3074
tp3075
Rp3076
sg27
g61
sg31
g5
sg32
I114
sg33
g5
sg34
I14
sg35
I774
sg36
F0.21428571428571427
sg37
g8
(g12
S'\x96E\x92\x12\t~\xe4?'
p3077
tp3078
Rp3079
sg41
g5
sg42
g8
(g12
S'\xf6Rd{\xe8\x88\x13?'
p3080
tp3081
Rp3082
sg46
I70000
sg47
g5
sg48
I10
sg49
g8
(g12
S'\x00\x00\x00\x00\x00\x00\x00\x00'
p3083
tp3084
Rp3085
sg53
g8
(g12
S';A-X\x82i\xc9?'
p3086
tp3087
Rp3088
sg57
I3
sg58
F0.056818181818181816
sg59
g5
sg60
g61
sg62
I221003
sg63
g8
(g12
S'\x84\xb7\x97\x9b\x05Li?'
p3089
tp3090
Rp3091
sg67
g8
(g12
S'jo\xd3\x11,\xbb\xd0?'
p3092
tp3093
Rp3094
sg71
I319941
sg72
F0.6477272727272727
sg73
g5
sg74
g8
(g12
S'\xdb\xb6m\xdb\xb6m\xcb?'
p3095
tp3096
Rp3097
ssS'YEAGER F SCOTT'
p3098
(dp3099
g3
g5
sg4
g5
sg6
I53947
sg7
g8
(g12
S'\xadq \xf8!\xc7\xd6?'
p3100
tp3101
Rp3102
sg18
I01
sg19
g5
sg20
S'scott.yeager@enron.com'
p3103
sg22
g5
sg23
g8
(g12
S"\xe4[~\x9a'\x1f\xce?"
p3104
tp3105
Rp3106
sg27
g8
(g12
S'\xb9\x13\xbeQ7\x10\xcf?'
p3107
tp3108
Rp3109
sg31
g5
sg32
g5
sg33
g5
sg34
g5
sg35
I147950
sg36
g61
sg37
g61
sg41
g5
sg42
g8
(g12
S'\xe4Q\xb2\xf1d?\x8d?'
p3110
tp3111
Rp3112
sg46
g5
sg47
I11884758
sg48
g5
sg49
g61
sg53
g8
(g12
S'\xab\xab\xdd\xb6\xcf2\xc2?'
p3113
tp3114
Rp3115
sg57
g5
sg58
g61
sg59
I3576206
sg60
g8
(g12
S"'P\x85Y\xe5\xf3\xce?"
p3116
tp3117
Rp3118
sg62
I158403
sg63
g8
(g12
S'\x16\xa3\x0b\x91Q}l?'
p3119
tp3120
Rp3121
sg67
g61
sg71
I360300
sg72
g61
sg73
I8308552
sg74
g61
ssS'HIRKO JOSEPH'
p3122
(dp3123
g3
g5
sg4
I10259
sg6
I77978
sg7
g61
sg18
I01
sg19
g5
sg20
S'joe.hirko@enron.com'
p3124
sg22
g5
sg23
g8
(g12
S'&\xb5\xba\x87\xca\xc9\xd5?'
p3125
tp3126
Rp3127
sg27
g8
(g12
S'2{S\xa3\xcc\x0e\xe4?'
p3128
tp3129
Rp3130
sg31
g5
sg32
g5
sg33
g5
sg34
g5
sg35
I2856
sg36
g61
sg37
g61
sg41
g5
sg42
g8
(g12
S'\x87)\xe8\x0b\xf4\r2?'
p3131
tp3132
Rp3133
sg46
g5
sg47
I30766064
sg48
g5
sg49
g61
sg53
g61
sg57
g5
sg58
g61
sg59
g5
sg60
g8
(g12
S'\xee\x8b\x90W\x8b\xa9\xec?'
p3134
tp3135
Rp3136
sg62
g5
sg63
g8
(g12
S'\xe3\x915\xbd\xc9\xc6L?'
p3137
tp3138
Rp3139
sg67
g61
sg71
I91093
sg72
g61
sg73
I30766064
sg74
g61
ssS'DIETRICH JANET R'
p3140
(dp3141
g3
I2572
sg4
g5
sg6
I3475
sg7
g8
(g12
S':`K\x1c\xdf\x84\xc5?'
p3142
tp3143
Rp3144
sg18
I00
sg19
g5
sg20
S'janet.dietrich@enron.com'
p3145
sg22
I556416
sg23
g8
(g12
S"\xe0\x8b'\x94\xe2\xcd\x8d?"
p3146
tp3147
Rp3148
sg27
g8
(g12
S'\xc2\xcdl\xfb\xeb\xe2\xa3?'
p3149
tp3150
Rp3151
sg31
g5
sg32
I1902
sg33
g5
sg34
I63
sg35
I473
sg36
F0.2222222222222222
sg37
g8
(g12
S'\xdc\x81\xbb\xe7\t{\xe7?'
p3152
tp3153
Rp3154
sg41
g5
sg42
g8
(g12
S'$\xf7\x10\xf6$\xd6\x07?'
p3155
tp3156
Rp3157
sg46
I600000
sg47
I1865087
sg48
I305
sg49
g8
(g12
S'\xa9\x8f\xbb\xf3\x15\x1c\xb1?'
p3158
tp3159
Rp3160
sg53
g8
(g12
S'T[\xa1\x9f\xde\xc3\xcc?'
p3161
tp3162
Rp3163
sg57
I14
sg58
F0.11858475894245724
sg59
I315068
sg60
g8
(g12
S'rO?A\xd6\x0e\xa7?'
p3164
tp3165
Rp3166
sg62
I250100
sg63
g8
(g12
S'%\xba\xde\xd6\xf5\xe3\x8b?'
p3167
tp3168
Rp3169
sg67
g8
(g12
S'\xe2\xc5\xc0\xc7\xafu\xe1?'
p3170
tp3171
Rp3172
sg71
I1410464
sg72
F0.73950233281493
sg73
I1550019
sg74
g8
(g12
S'\x1c\xc7q\x1c\xc7q\xcc?'
p3173
tp3174
Rp3175
ssS'DERRICK JR. JAMES V'
p3176
(dp3177
g3
I2181
sg4
g5
sg6
I51124
sg7
g8
(g12
S'\xa0 \xe0Qz/\xd0?'
p3178
tp3179
Rp3180
sg18
I00
sg19
I-1284000
sg20
S'james.derrick@enron.com'
p3181
sg22
I484000
sg23
g8
(g12
S'\x80\xb83\xcc\x86\x8a\xcc?'
p3182
tp3183
Rp3184
sg27
g8
(g12
S'\x14\xc5\x83s\x13\x1d\xc7?'
p3185
tp3186
Rp3187
sg31
I-1787380
sg32
I1401
sg33
g5
sg34
I909
sg35
I7482
sg36
F0.022002200220022004
sg37
g8
(g12
S'\xe6s\x14KXQ\xe4?'
p3188
tp3189
Rp3190
sg41
g5
sg42
g8
(g12
S'\xf7\x86\xb5\xa2\xcc\xa8G?'
p3191
tp3192
Rp3193
sg46
I800000
sg47
I8831913
sg48
I64
sg49
g8
(g12
S'5\xbc\xa1\xc3\xf2\x90\xb7?'
p3194
tp3195
Rp3196
sg53
g8
(g12
S'[\x90\xe7\x9b|W\xdc?'
p3197
tp3198
Rp3199
sg57
I20
sg58
F0.029344337459880788
sg59
I1787380
sg60
g8
(g12
S'\xc8\x92;\xbf\x9cs\xd0?'
p3200
tp3201
Rp3202
sg62
I492375
sg63
g8
(g12
S'M\xee\xe9=^\xc9u?'
p3203
tp3204
Rp3205
sg67
g8
(g12
S"+M'U-H\xc1?"
p3206
tp3207
Rp3208
sg71
I550981
sg72
F0.6423658872077029
sg73
I8831913
sg74
g8
(g12
S'\x89G\x8a\xa9\xbe\x87\x96?'
p3209
tp3210
Rp3211
ssS'FREVERT MARK A'
p3212
(dp3213
g3
I3275
sg4
I6426990
sg6
I86987
sg7
g8
(g12
S':\x92\x9d^\xf4\x08\xd9?'
p3214
tp3215
Rp3216
sg18
I00
sg19
I-3367011
sg20
S'mark.frevert@enron.com'
p3217
sg22
I1617011
sg23
g8
(g12
S'\xf6\xb7\xc1\xe4nO\xd8?'
p3218
tp3219
Rp3220
sg27
g8
(g12
S'e6\xf7\x1c\x8b\x18\xd3?'
p3221
tp3222
Rp3223
sg31
g5
sg32
I2979
sg33
I2000000
sg34
I21
sg35
I7427621
sg36
F0.2857142857142857
sg37
g8
(g12
S'N\xa4\x91-\x10\x05\xed?'
p3224
tp3225
Rp3226
sg41
g5
sg42
g8
(g12
S'\x8f\xb7\x800l\xf1\xe6?'
p3227
tp3228
Rp3229
sg46
I2000000
sg47
I14622185
sg48
I242
sg49
g8
(g12
S"\xc1c\x83\xd1\x0f'\xcf?"
p3230
tp3231
Rp3232
sg53
g8
(g12
S'\x82\xa5d\xa0\xd8\x8c\xee?'
p3233
tp3234
Rp3235
sg57
I6
sg58
F0.07389312977099237
sg59
I4188667
sg60
g8
(g12
S'\xdb\xa6\x06\x81\xa4o\xd3?'
p3236
tp3237
Rp3238
sg62
I1060932
sg63
g8
(g12
S':\xac1\x0c\xf1R\xc5?'
p3239
tp3240
Rp3241
sg67
g8
(g12
S'\x0f\x9b\xaa\xdcX\xc2\xd5?'
p3242
tp3243
Rp3244
sg71
I17252530
sg72
F0.909618320610687
sg73
I10433518
sg74
g8
(g12
S'\x92$I\x92$I\xd2?'
p3245
tp3246
Rp3247
ssS'PAI LOU L'
p3248
(dp3249
g3
g5
sg4
g5
sg6
I32047
sg7
g8
(g12
S'O\xa4\x19\x08j`\xe4?'
p3250
tp3251
Rp3252
sg18
I00
sg19
g5
sg20
S'lou.pai@enron.com'
p3253
sg22
g5
sg23
g8
(g12
S'\x96t0H+\xdc\xc1?'
p3254
tp3255
Rp3256
sg27
g8
(g12
S'\x8b;B\x07\xa8\x11\xdf?'
p3257
tp3258
Rp3259
sg31
g5
sg32
g5
sg33
g5
sg34
g5
sg35
I1829457
sg36
g61
sg37
g61
sg41
g5
sg42
g8
(g12
S'\xef\n\xdc;\x99\x9a\xc6?'
p3260
tp3261
Rp3262
sg46
I1000000
sg47
I23817930
sg48
g5
sg49
g8
(g12
S'\xc2\xe8\x87\x93\xcf\x05\xbe?'
p3263
tp3264
Rp3265
sg53
g8
(g12
S'%5:\x86Y\x1f\xce?'
p3266
tp3267
Rp3268
sg57
g5
sg58
g61
sg59
I8453763
sg60
g8
(g12
S'\x8a\x12\x07\xeb\xc2\x9f\xdc?'
p3269
tp3270
Rp3271
sg62
I261879
sg63
g8
(g12
S'n%\x84\r\xf3\xe1\x9e?'
p3272
tp3273
Rp3274
sg67
g61
sg71
I3123383
sg72
g61
sg73
I15364167
sg74
g61
ssS'BAY FRANKLIN R'
p3275
(dp3276
g3
g5
sg4
I260455
sg6
I129142
sg7
g8
(g12
S'\xe9\xe7\xb5\x82yE\xc4?'
p3277
tp3278
Rp3279
sg18
I00
sg19
I-201641
sg20
S'frank.bay@enron.com'
p3280
sg22
g5
sg23
g8
(g12
S'o\xb2\x14\x8bC\x0e\xe2?'
p3281
tp3282
Rp3283
sg27
g8
(g12
S'w\x03Ec\xb2\xd9a?'
p3284
tp3285
Rp3286
sg31
I-82782
sg32
g5
sg33
g5
sg34
g5
sg35
I69
sg36
g61
sg37
g61
sg41
g5
sg42
g8
(g12
S'U\x1a\xb3&D \xdb>'
p3287
tp3288
Rp3289
sg46
I400000
sg47
I63014
sg48
g5
sg49
g8
(g12
S'7\xc6\xaaGrN\xa5?'
p3290
tp3291
Rp3292
sg53
g8
(g12
S'=I\x16\xe96\x90\xcb?'
p3293
tp3294
Rp3295
sg57
g5
sg58
g61
sg59
I145796
sg60
g61
sg62
I239671
sg63
g8
(g12
S'\xfb\xf7\xc8\x97\x99]\x80?'
p3296
tp3297
Rp3298
sg67
g61
sg71
I827696
sg72
g61
sg73
g5
sg74
g61
ssS'HAYSLETT RODERICK J'
p3299
(dp3300
g3
I2649
sg4
g5
sg6
g5
sg7
g8
(g12
S'< \t\xd8|\xc0\xc5?'
p3301
tp3302
Rp3303
sg18
I00
sg19
g5
sg20
S'rod.hayslett@enron.com'
p3304
sg22
g5
sg23
g61
sg27
g8
(g12
S'IS\xaeA\xe1G\x80?'
p3305
tp3306
Rp3307
sg31
g5
sg32
I571
sg33
g5
sg34
I1061
sg35
g5
sg36
F0.03581526861451461
sg37
g8
(g12
S'Nh,\xa0[\xae\xc9?'
p3308
tp3309
Rp3310
sg41
g5
sg42
g61
sg46
g5
sg47
I346663
sg48
I35
sg49
g61
sg53
g61
sg57
I38
sg58
F0.01321253303133258
sg59
I346663
sg60
g61
sg62
g5
sg63
g61
sg67
g8
(g12
S'4\xa0\xff9\x17 \xaf?'
p3311
tp3312
Rp3313
sg71
g5
sg72
F0.21555303888259722
sg73
g5
sg74
g8
(g12
S'\xc7(\xcb\xfe`V\xa2?'
p3314
tp3315
Rp3316
ssS'FUGH JOHN L'
p3317
(dp3318
g3
g5
sg4
I50591
sg6
g5
sg7
g61
sg18
I00
sg19
g5
sg20
g5
sg22
g5
sg23
g61
sg27
g8
(g12
S'\x88\x05\xf1p,_r?'
p3319
tp3320
Rp3321
sg31
g5
sg32
g5
sg33
g5
sg34
g5
sg35
g5
sg36
g61
sg37
g61
sg41
g5
sg42
g61
sg46
g5
sg47
I176378
sg48
g5
sg49
g61
sg53
g61
sg57
g5
sg58
g61
sg59
g5
sg60
g8
(g12
S'Z\xacuw\xa1\xa4t?'
p3322
tp3323
Rp3324
sg62
g5
sg63
g8
(g12
S'\xed\xe2\xba\x1d\t\xec??'
p3325
tp3326
Rp3327
sg67
g61
sg71
I50591
sg72
g61
sg73
I176378
sg74
g61
ssS'FALLON JAMES B'
p3328
(dp3329
g3
I1755
sg4
g5
sg6
I95924
sg7
g8
(g12
S'3\x95z\xd1/u\xcd?'
p3330
tp3331
Rp3332
sg18
I00
sg19
g5
sg20
S'jim.fallon@enron.com'
p3333
sg22
I374347
sg23
g8
(g12
S'\xadt\x92M\xea\xcf\xda?'
p3334
tp3335
Rp3336
sg27
g8
(g12
S'D\xec\xa27\x08\xc1\xa8?'
p3337
tp3338
Rp3339
sg31
g5
sg32
I1604
sg33
g5
sg34
I75
sg35
I401481
sg36
F0.49333333333333335
sg37
g8
(g12
S'-\x1f\x1a:A)\xed?'
p3340
tp3341
Rp3342
sg41
g5
sg42
g8
(g12
S'\xfbb\xccn\x8a\xd7\xa3?'
p3343
tp3344
Rp3345
sg46
I2500000
sg47
I2332399
sg48
I42
sg49
g8
(g12
S'\xb8\x8d\xb1\xea\x91\x9c\xd3?'
p3346
tp3347
Rp3348
sg53
g8
(g12
S'Ezs\xc0\xa1\x85\xd1?'
p3349
tp3350
Rp3351
sg57
I37
sg58
F0.023931623931623933
sg59
I1392142
sg60
g8
(g12
S'\xf4\x98\x03y\x93\xef\x9b?'
p3352
tp3353
Rp3354
sg62
I304588
sg63
g8
(g12
S'c\xa3]\x81\xd5,\xa2?'
p3355
tp3356
Rp3357
sg67
g8
(g12
S'Qq\x1a\xd8:0\xbc?'
p3358
tp3359
Rp3360
sg71
I3676340
sg72
F0.913960113960114
sg73
I940257
sg74
g8
(g12
S'\x93_,\xf9\xc5\x92\xdf?'
p3361
tp3362
Rp3363
ssS'KOENIG MARK E'
p3364
(dp3365
g3
I2374
sg4
g5
sg6
I127017
sg7
g8
(g12
S'J\x1b9\xb0\xcee\xcc?'
p3366
tp3367
Rp3368
sg18
I01
sg19
g5
sg20
S'mark.koenig@enron.com'
p3369
sg22
I300000
sg23
g8
(g12
S'?V\x97L\x1e\xc2\xe1?'
p3370
tp3371
Rp3372
sg27
g8
(g12
S'2\xa7f%\x7fu\xa4?'
p3373
tp3374
Rp3375
sg31
g5
sg32
I2271
sg33
g5
sg34
I61
sg35
I150458
sg36
F0.2459016393442623
sg37
g8
(g12
S'\x02\x13\x05\xd4\xcb\x8c\xee?'
p3376
tp3377
Rp3378
sg41
g5
sg42
g8
(g12
S'\xdfC*\xe4Q\xbe\x8d?'
p3379
tp3380
Rp3381
sg46
I700000
sg47
I1920055
sg48
I53
sg49
g8
(g12
S'\xef\xa5\xae[\x84V\xb4?'
p3382
tp3383
Rp3384
sg53
g8
(g12
S'4A\x0e\x89\xa9\xd4\xd1?'
p3385
tp3386
Rp3387
sg57
I15
sg58
F0.02232518955349621
sg59
I1248318
sg60
g8
(g12
S'^\x04\x97\xcd\x0e\xee\x93?'
p3388
tp3389
Rp3390
sg62
I309946
sg63
g8
(g12
S'\xec\xf0\x83\xad\xd5c\x8f?'
p3391
tp3392
Rp3393
sg67
g8
(g12
S'(1\xc8I\xd5K\xba?'
p3394
tp3395
Rp3396
sg71
I1587421
sg72
F0.9566133108677338
sg73
I671737
sg74
g8
(g12
S'.\x19\x82u\xb4y\xcf?'
p3397
tp3398
Rp3399
ssS'SAVAGE FRANK'
p3400
(dp3401
g3
g5
sg4
g5
sg6
g5
sg7
g61
sg18
I00
sg19
I-121284
sg20
g5
sg22
g5
sg23
g61
sg27
g61
sg31
g5
sg32
g5
sg33
g5
sg34
g5
sg35
g5
sg36
g61
sg37
g61
sg41
I125034
sg42
g61
sg46
g5
sg47
g5
sg48
g5
sg49
g61
sg53
g61
sg57
g5
sg58
g61
sg59
g5
sg60
g61
sg62
g5
sg63
g8
(g12
S'\x05\xad\x91\x94X<\x02?'
p3402
tp3403
Rp3404
sg67
g61
sg71
I3750
sg72
g61
sg73
g5
sg74
g61
ssS'IZZO LAWRENCE L'
p3405
(dp3406
g3
I496
sg4
g5
sg6
I28093
sg7
g8
(g12
S'\x96\xa0\x8b\x07J\x11\xd7?'
p3407
tp3408
Rp3409
sg18
I00
sg19
g5
sg20
S'larry.izzo@enron.com'
p3410
sg22
I312500
sg23
g8
(g12
S'\xa8\x18$\x03\xddJ\xbf?'
p3411
tp3412
Rp3413
sg27
g8
(g12
S'\xc0\xc0\xc9-k\x8a\xbe?'
p3414
tp3415
Rp3416
sg31
g5
sg32
I437
sg33
g5
sg34
I19
sg35
I1553729
sg36
F0.2631578947368421
sg37
g8
(g12
S'Z_\x11*\xea\x16\xec?'
p3417
tp3418
Rp3419
sg41
g5
sg42
g8
(g12
S'\x80c3Mw2\xc3?'
p3420
tp3421
Rp3422
sg46
g5
sg47
I5819980
sg48
I28
sg49
g61
sg53
g8
(g12
S'\xec\xf3\x16X\x04\x8b\xb3?'
p3423
tp3424
Rp3425
sg57
I5
sg58
F0.056451612903225805
sg59
I3654808
sg60
g8
(g12
S'R~:\xd5:\x1d\xb0?'
p3426
tp3427
Rp3428
sg62
I85274
sg63
g8
(g12
S'\xef\xfb\x93\x9f\xa4\x92\x93?'
p3429
tp3430
Rp3431
sg67
g8
(g12
S'\x1d\x1c`\xed\x89\x9f\xd0?'
p3432
tp3433
Rp3434
sg71
I1979596
sg72
F0.8810483870967742
sg73
I2165172
sg74
g8
(g12
S'y\r\xe55\x94\xd7\xd0?'
p3435
tp3436
Rp3437
ssS'TILNEY ELIZABETH A'
p3438
(dp3439
g3
I460
sg4
g5
sg6
g5
sg7
g8
(g12
S'\xe6X\xd4\xf8\xb6r\xc7?'
p3440
tp3441
Rp3442
sg18
I00
sg19
I-575000
sg20
S'elizabeth.tilney@enron.com'
p3443
sg22
I275000
sg23
g61
sg27
g8
(g12
S'\xe1y\x899o@\x99?'
p3444
tp3445
Rp3446
sg31
g5
sg32
I379
sg33
g5
sg34
I19
sg35
I152055
sg36
F0.5789473684210527
sg37
g8
(g12
S'\xaa\xd7!\xca\xa7:\xea?'
p3447
tp3448
Rp3449
sg41
g5
sg42
g8
(g12
S'\xce=O-$\x0f\x8e?'
p3450
tp3451
Rp3452
sg46
I300000
sg47
I1168042
sg48
I10
sg49
g8
(g12
S'V3\x89\xef*\xb3\x9d?'
p3453
tp3454
Rp3455
sg53
g8
(g12
S'\xd9\xb8R\x06dr\xcc?'
p3456
tp3457
Rp3458
sg57
I11
sg58
F0.021739130434782608
sg59
I576792
sg60
g8
(g12
S'vl\x11\xa0\xba\x87\x91?'
p3459
tp3460
Rp3461
sg62
I247338
sg63
g8
(g12
S'\xc5\x0bg]\xfa\x94o?'
p3462
tp3463
Rp3464
sg67
g8
(g12
S'\xd0\x19+\x9a\x1d\x9b\xb9?'
p3465
tp3466
Rp3467
sg71
I399393
sg72
F0.8239130434782609
sg73
I591250
sg74
g8
(g12
S'l(\xaf\xa1\xbc\x86\xe2?'
p3468
tp3469
Rp3470
ssS'MARTIN AMANDA K'
p3471
(dp3472
g3
I1522
sg4
I85430
sg6
I8211
sg7
g61
sg18
I00
sg19
g5
sg20
S'a..martin@enron.com'
p3473
sg22
I5145434
sg23
g8
(g12
S'$2(\xf8\xc3\x0e\xa2?'
p3474
tp3475
Rp3476
sg27
g8
(g12
S'k\xcf\x13\xf7%\x06\xa6?'
p3477
tp3478
Rp3479
sg31
g5
sg32
I477
sg33
g5
sg34
I230
sg35
I2818454
sg36
F0.0
sg37
g8
(g12
S'\x8b\xdf\xd1\xfcw6\xd3?'
p3480
tp3481
Rp3482
sg41
g5
sg42
g8
(g12
S'\xbb\x9a\xfe#hi\xd1?'
p3483
tp3484
Rp3485
sg46
g5
sg47
I2070306
sg48
I8
sg49
g61
sg53
g8
(g12
S'\x0eh\xe0+\xe4\x1b\xd4?'
p3486
tp3487
Rp3488
sg57
I0
sg58
F0.005256241787122208
sg59
g5
sg60
g8
(g12
S'\xb5>u\x99k\xd0\xae?'
p3489
tp3490
Rp3491
sg62
I349487
sg63
g8
(g12
S'7\x90\xa4\x8c%\xc8\xb4?'
p3492
tp3493
Rp3494
sg67
g8
(g12
S'\x8a\x0ew*\xc5\xc3\x98?'
p3495
tp3496
Rp3497
sg71
I8407016
sg72
F0.31340341655716164
sg73
I2070306
sg74
g8
(g12
S'\x00\x00\x00\x00\x00\x00\x00\x00'
p3498
tp3499
Rp3500
ssS'BUY RICHARD B'
p3501
(dp3502
g3
I3523
sg4
I649584
sg6
g5
sg7
g8
(g12
S'\xddB\x8f\xa1\xb2\xd7\xc9?'
p3503
tp3504
Rp3505
sg18
I00
sg19
I-694862
sg20
S'rick.buy@enron.com'
p3506
sg22
I769862
sg23
g61
sg27
g8
(g12
S'\xe78\xa6>6+\xb2?'
p3507
tp3508
Rp3509
sg31
g5
sg32
I2333
sg33
g5
sg34
I1053
sg35
I400572
sg36
F0.06742640075973409
sg37
g8
(g12
S'@87\xc8\xd6\xf6\xe4?'
p3510
tp3511
Rp3512
sg41
g5
sg42
g8
(g12
S'\x08\xb2\xcc>\n\xcc\xa3?'
p3513
tp3514
Rp3515
sg46
I900000
sg47
I3444470
sg48
I156
sg49
g8
(g12
S'|\xd2\x94+a\xcb\xba?'
p3516
tp3517
Rp3518
sg53
g8
(g12
S'\xba\xcc\xa6\n\x83\x04\xd3?'
p3519
tp3520
Rp3521
sg57
I71
sg58
F0.04428044280442804
sg59
I901657
sg60
g8
(g12
S'\x17\xa6\x18s\xd4\xed\xb2?'
p3522
tp3523
Rp3524
sg62
I330546
sg63
g8
(g12
S'=\xcb-Z\xb1J\x97?'
p3525
tp3526
Rp3527
sg67
g8
(g12
S'\xf2\xec\xb3\x08\x0f\x14\xca?'
p3528
tp3529
Rp3530
sg71
I2355702
sg72
F0.6622196991200682
sg73
I2542813
sg74
g8
(g12
S'\x83i&J\xdbB\xb1?'
p3531
tp3532
Rp3533
ssS'GRAMM WENDY L'
p3534
(dp3535
g3
g5
sg4
g5
sg6
g5
sg7
g61
sg18
I00
sg19
g5
sg20
g5
sg22
g5
sg23
g61
sg27
g61
sg31
g5
sg32
g5
sg33
g5
sg34
g5
sg35
g5
sg36
g61
sg37
g61
sg41
I119292
sg42
g61
sg46
g5
sg47
g5
sg48
g5
sg49
g61
sg53
g61
sg57
g5
sg58
g61
sg59
g5
sg60
g61
sg62
g5
sg63
g8
(g12
S'\xd0Xa\xbf}\xd9R?'
p3536
tp3537
Rp3538
sg67
g61
sg71
I119292
sg72
g61
sg73
g5
sg74
g61
ssS'CAUSEY RICHARD A'
p3539
(dp3540
g3
I1892
sg4
g5
sg6
I30674
sg7
g8
(g12
S'\xfa{\xb0\x83\xbd\xd1\xd2?'
p3541
tp3542
Rp3543
sg18
I01
sg19
I-235000
sg20
S'richard.causey@enron.com'
p3544
sg22
I350000
sg23
g8
(g12
S'\xa1\x9f\xe1\x90_\x17\xc1?'
p3545
tp3546
Rp3547
sg27
g8
(g12
S'\x9d\xc7\x1d\x0fs\x85\xaa?'
p3548
tp3549
Rp3550
sg31
g5
sg32
I1585
sg33
g5
sg34
I49
sg35
I307895
sg36
F0.24489795918367346
sg37
g8
(g12
S"\r\xac'\xd6\xe4\xad\xea?"
p3551
tp3552
Rp3553
sg41
g5
sg42
g8
(g12
S'\xdbyw\xd5\xf7n\x9e?'
p3554
tp3555
Rp3556
sg46
I1000000
sg47
I2502063
sg48
I58
sg49
g8
(g12
S'\xc2\xe8\x87\x93\xcf\x05\xbe?'
p3557
tp3558
Rp3559
sg53
g8
(g12
S'*U\xd4\x9f\xfe\xe4\xd7?'
p3560
tp3561
Rp3562
sg57
I12
sg58
F0.0306553911205074
sg59
I2502063
sg60
g61
sg62
I415189
sg63
g8
(g12
S'\x1d\xf5\xcd:\x13z\x92?'
p3563
tp3564
Rp3565
sg67
g8
(g12
S'K\xefLq\xd7\r\xc2?'
p3566
tp3567
Rp3568
sg71
I1868758
sg72
F0.837737843551797
sg73
g5
sg74
g8
(g12
S'\xd6\x87\xc6\xfa\xd0X\xcf?'
p3569
tp3570
Rp3571
ssS'TAYLOR MITCHELL S'
p3572
(dp3573
g3
I533
sg4
I227449
sg6
g5
sg7
g8
(g12
S'\rq\xc1P2Z\xc7?'
p3574
tp3575
Rp3576
sg18
I00
sg19
g5
sg20
S'mitchell.taylor@enron.com'
p3577
sg22
g5
sg23
g61
sg27
g8
(g12
S'6\x83\x03\x01\xf7\xbb\xb3?'
p3578
tp3579
Rp3580
sg31
g5
sg32
I300
sg33
g5
sg34
I29
sg35
g5
sg36
F0.0
sg37
g8
(g12
S'\x88*mb\x8b\xba\xe1?'
p3581
tp3582
Rp3583
sg41
g5
sg42
g61
sg46
I600000
sg47
I3745048
sg48
I0
sg49
g8
(g12
S'\xa9\x8f\xbb\xf3\x15\x1c\xb1?'
p3584
tp3585
Rp3586
sg53
g8
(g12
S'n\xa4\xf9i\xbb\x81\xce?'
p3587
tp3588
Rp3589
sg57
I0
sg58
F0.0
sg59
I563798
sg60
g8
(g12
S'h?H$\x12\xb0\xb7?'
p3590
tp3591
Rp3592
sg62
I265214
sg63
g8
(g12
S"\x0e\x9b\x91'\n\x9b\x85?"
p3593
tp3594
Rp3595
sg67
g8
(g12
S'\x00\x00\x00\x00\x00\x00\x00\x00'
p3596
tp3597
Rp3598
sg71
I1092663
sg72
F0.5628517823639775
sg73
I3181250
sg74
g8
(g12
S'\x00\x00\x00\x00\x00\x00\x00\x00'
p3599
tp3600
Rp3601
ssS'DONAHUE JR JEFFREY M'
p3602
(dp3603
g3
I865
sg4
g5
sg6
I96268
sg7
g8
(g12
S':`K\x1c\xdf\x84\xc5?'
p3604
tp3605
Rp3606
sg18
I00
sg19
I-300000
sg20
S'jeff.donahue@enron.com'
p3607
sg22
g5
sg23
g8
(g12
S'\xb1\x8a\x07\x87\x91\xe8\xda?'
p3608
tp3609
Rp3610
sg27
g8
(g12
S'V\x93\x11\xbf*p\x97?'
p3611
tp3612
Rp3613
sg31
g5
sg32
I772
sg33
g5
sg34
I22
sg35
I891
sg36
F0.5
sg37
g8
(g12
S'\xaf\x85x-@v\xec?'
p3614
tp3615
Rp3616
sg41
g5
sg42
g8
(g12
S'\xd6\xa5\\Z\xd1~\x16?'
p3617
tp3618
Rp3619
sg46
I800000
sg47
I1080988
sg48
I188
sg49
g8
(g12
S'5\xbc\xa1\xc3\xf2\x90\xb7?'
p3620
tp3621
Rp3622
sg53
g8
(g12
S'\x8d\xa9B\xf5R\x06\xd0?'
p3623
tp3624
Rp3625
sg57
I11
sg58
F0.21734104046242775
sg59
I315068
sg60
g8
(g12
S'\x8a\x9b\x06b\xec\xbc\x96?'
p3626
tp3627
Rp3628
sg62
I278601
sg63
g8
(g12
S'\xd9\xa9\x91\x97\xeeP\x81?'
p3629
tp3630
Rp3631
sg67
g8
(g12
S'\x00\x00\x00\x00\x00\x00\xf0?'
p3632
tp3633
Rp3634
sg71
I875760
sg72
F0.892485549132948
sg73
I765920
sg74
g8
(g12
S'\x00\x00\x00\x00\x00\x00\xe0?'
p3635
tp3636
Rp3637
ssS'GLISAN JR BEN F'
p3638
(dp3639
g3
I873
sg4
g5
sg6
I125978
sg7
g8
(g12
S'\x89\x19\xa7\xb8v\x19\xc6?'
p3640
tp3641
Rp3642
sg18
I01
sg19
g5
sg20
S'ben.glisan@enron.com'
p3643
sg22
I71023
sg23
g8
(g12
S'_\xf5\xdd?\xe3\x9c\xe1?'
p3644
tp3645
Rp3646
sg27
g8
(g12
S'\xe7L*\xd76#\x91?'
p3647
tp3648
Rp3649
sg31
g5
sg32
I874
sg33
g5
sg34
I16
sg35
I200308
sg36
F0.375
sg37
g8
(g12
S'\x00\x00\x00\x00\x00\x00\xf0?'
p3650
tp3651
Rp3652
sg41
g5
sg42
g8
(g12
S'X\xc4\xc6G\x92\xcc\x93?'
p3653
tp3654
Rp3655
sg46
I600000
sg47
I778546
sg48
I52
sg49
g8
(g12
S'\xa9\x8f\xbb\xf3\x15\x1c\xb1?'
p3656
tp3657
Rp3658
sg53
g8
(g12
S'*\xc0\xa8e\xae\xa1\xcf?'
p3659
tp3660
Rp3661
sg57
I6
sg58
F0.05956471935853379
sg59
I393818
sg60
g8
(g12
S'\xb5\xf3\x84\xd3\xd6\xbe\x86?'
p3662
tp3663
Rp3664
sg62
I274975
sg63
g8
(g12
S'\x04\x90\xa3\xa6f(\x89?'
p3665
tp3666
Rp3667
sg67
g8
(g12
S'\xa9\x05cw7\x8a\xd1?'
p3668
tp3669
Rp3670
sg71
I1272284
sg72
F1.0011454753722795
sg73
I384728
sg74
g8
(g12
S'\x00\x00\x00\x00\x00\x00\xd8?'
p3671
tp3672
Rp3673
ss.